(dp0
S'a'
p1
(dp2
F0.0
F0.0
sF1.0
F0.0
sF2.0
F64.0
sF3.0
F0.0
sF5.0
F0.0
sF6.0
F0.0
sF7.0
F0.0
sF8.0
F0.0
sF9.0
F225.0
sF11.0
F0.0
sF12.0
F0.0
sF14.0
F0.0
sF15.0
F0.0
sF16.0
F183.0
sF18.0
F0.0
sF19.0
F0.0
sF22.0
F0.0
sF23.0
F0.0
sF24.0
F273.0
sF25.0
F0.0
sF27.0
F0.0
sF28.0
F0.0
sF29.0
F0.0
sF30.0
F0.0
sF31.0
F0.0
sF32.0
F0.0
ssS'c'
p3
(dp4
F0.0
F0.0
sF1.0
F0.0
sF2.0
F0.0
sF3.0
F10.0
sF5.0
F54.0
sF6.0
F54.0
sF7.0
F0.0
sF8.0
F0.0
sF9.0
F225.0
sF11.0
F225.0
sF12.0
F0.0
sF14.0
F0.0
sF15.0
F0.0
sF16.0
F0.0
sF18.0
F0.0
sF19.0
F183.0
sF22.0
F0.0
sF23.0
F0.0
sF24.0
F0.0
sF25.0
F105.0
sF27.0
F154.9090909090909
sF28.0
F26.18181818181818
sF29.0
F0.0
sF30.0
F0.0
sF31.0
F0.0
sF32.0
F0.0
ssS'b'
p5
(dp6
F0.0
F0.0
sF1.0
F0.0
sF2.0
F64.0
sF3.0
F64.0
sF5.0
F0.0
sF6.0
F0.0
sF7.0
F0.0
sF8.0
F0.0
sF9.0
F0.0
sF11.0
F225.0
sF12.0
F197.0
sF14.0
F0.0
sF15.0
F0.0
sF16.0
F183.0
sF18.0
F183.0
sF19.0
F183.0
sF22.0
F0.0
sF23.0
F0.0
sF24.0
F273.0
sF25.0
F273.0
sF27.0
F13.09090909090909
sF28.0
F0.0
sF29.0
F0.0
sF30.0
F0.0
sF31.0
F0.0
sF32.0
F0.0
ssS'e'
p7
(dp8
F0.0
F0.0
sF1.0
F0.0
sF2.0
F0.0
sF3.0
F0.0
sF5.0
F0.0
sF6.0
F0.0
sF7.0
F0.0
sF8.0
F0.0
sF9.0
F42.0
sF11.0
F0.0
sF12.0
F0.0
sF14.0
F0.0
sF15.0
F0.0
sF16.0
F98.0
sF18.0
F0.0
sF19.0
F0.0
sF22.0
F0.0
sF23.0
F49.0
sF24.0
F0.0
sF25.0
F0.0
sF27.0
F0.0
sF28.0
F0.0
sF29.0
F0.0
sF30.0
F48.0
sF31.0
F0.0
sF32.0
F0.0
ssS'd'
p9
(dp10
F0.0
F0.0
sF1.0
F0.0
sF2.0
F0.0
sF3.0
F0.0
sF5.0
F0.0
sF6.0
F12.0
sF7.0
F42.0
sF8.0
F42.0
sF9.0
F42.0
sF11.0
F0.0
sF12.0
F99.0
sF14.0
F98.0
sF15.0
F98.0
sF16.0
F98.0
sF18.0
F0.0
sF19.0
F141.0
sF22.0
F49.0
sF23.0
F49.0
sF24.0
F0.0
sF25.0
F0.0
sF27.0
F120.0
sF28.0
F21.818181818181817
sF29.0
F48.0
sF30.0
F48.0
sF31.0
F0.0
sF32.0
F0.0
ss.