(dp0
S'11'
p1
(dp2
F55.46800279503132
F0.0
sF13.399624034629847
F0.0
sF86.64898833146978
F0.0
sF20.358456906870508
F0.0
sF92.13696544017236
F0.0
sF19.004395331202318
F0.0
sF86.97729872140852
F0.0
sF47.654375402102914
F0.0
sF79.43497175584463
F0.0
sF73.04013549443482
F0.0
sF89.14218652166947
F0.0
sF57.183859462569046
F0.0
sF92.9588428302675
F0.0
sF34.94880940007197
F0.0
sF84.11636912056576
F0.0
sF90.449254959981
F7.35710572969461
sF100.0
F0.0
sF38.57045306057162
F0.0
sF92.43195257899498
F0.0
sF86.09812141238554
F0.0
sF94.79337296938155
F0.0
sF2.0109770323050946
F0.0
sF60.43802277087988
F0.0
sF87.19593096125648
F0.0
sF79.9960109506552
F0.0
sF89.3537078176033
F0.0
sF93.14353349522267
F0.0
sF23.983439152747145
F0.0
sF56.17723606151408
F0.0
sF87.88831642518156
F0.0
sF36.69718008266238
F0.0
sF27.562930013367748
F0.0
sF52.19631019627161
F0.0
sF87.93088971947972
F0.0
sF38.00115310843021
F0.0
sF96.51756037949488
F0.0
sF53.243200997307675
F0.0
sF82.22691129242558
F0.0
sF65.69364763145796
F0.0
sF88.23045229532943
F0.0
sF46.76583040552515
F0.0
sF25.97957964784327
F0.0
sF38.385932498830876
F0.0
sF55.968604654213266
F0.0
sF72.01646440110846
F0.0
sF95.92131140433415
F0.0
sF33.39858298908548
F0.0
sF52.37920458587425
F0.0
sF46.81232535871056
F0.0
sF90.47050670722884
F10.86367642807886
sF90.3310719467752
F0.0
sF46.90412030964997
F0.0
sF86.50120761832456
F0.0
sF74.97090371795456
F0.0
sF48.570092408137825
F0.0
sF64.85051201339003
F0.0
sF35.845168080990085
F0.0
sF43.458078188108644
F0.0
sF55.21438025221634
F0.0
sF52.209253426500624
F0.0
sF43.2548163868659
F0.0
sF84.28444405346669
F0.0
sF57.28551739587099
F0.0
sF58.57152824097817
F0.0
sF91.03947991132488
F104.7451226161138
sF91.94318502991324
F0.0
sF29.980542920690997
F0.0
sF37.801204380587215
F0.0
sF86.27321590328692
F0.0
sF90.40466685242764
F257.97690886450005
sF65.90654777474518
F0.0
sF20.02590006283754
F0.0
sF91.59700880297702
F196.73823980178747
sF82.73259901701341
F0.0
sF12.9414970933256
F0.0
sF39.36287579217078
F0.0
sF48.774350390362976
F0.0
sF92.97326173072845
F0.0
sF32.35564951059685
F0.0
sF91.62289003876734
F201.00868316825375
sF60.93237106024006
F0.0
sF33.68420217251255
F0.0
sF51.66511360390297
F0.0
sF49.825544608944845
F0.0
sF52.36657582858103
F0.0
sF88.78970117142694
F0.0
sF34.56852623145108
F0.0
sF29.25305897228746
F0.0
sF84.97219315435775
F0.0
sF92.93517915263575
F0.0
sF50.027053296920634
F0.0
sF88.8487236315864
F0.0
ssS'10'
p3
(dp4
F55.46800279503132
F0.0
sF13.399624034629847
F0.0
sF86.64898833146978
F0.0
sF20.358456906870508
F0.0
sF92.13696544017236
F0.0
sF19.004395331202318
F0.0
sF86.97729872140852
F0.0
sF47.654375402102914
F0.0
sF79.43497175584463
F0.0
sF73.04013549443482
F0.0
sF89.14218652166947
F0.0
sF57.183859462569046
F0.0
sF92.9588428302675
F0.0
sF34.94880940007197
F0.0
sF84.11636912056576
F0.0
sF90.449254959981
F0.0
sF100.0
F0.0
sF38.57045306057162
F0.0
sF92.43195257899498
F0.0
sF86.09812141238554
F0.0
sF94.79337296938155
F0.0
sF2.0109770323050946
F0.0
sF60.43802277087988
F0.0
sF87.19593096125648
F0.0
sF79.9960109506552
F0.0
sF89.3537078176033
F0.0
sF93.14353349522267
F0.0
sF23.983439152747145
F0.0
sF56.17723606151408
F0.0
sF87.88831642518156
F0.0
sF36.69718008266238
F0.0
sF27.562930013367748
F0.0
sF52.19631019627161
F0.0
sF87.93088971947972
F0.0
sF38.00115310843021
F0.0
sF96.51756037949488
F0.0
sF53.243200997307675
F0.0
sF82.22691129242558
F0.0
sF65.69364763145796
F0.0
sF88.23045229532943
F0.0
sF46.76583040552515
F0.0
sF25.97957964784327
F0.0
sF38.385932498830876
F0.0
sF55.968604654213266
F0.0
sF72.01646440110846
F0.0
sF95.92131140433415
F0.0
sF33.39858298908548
F0.0
sF52.37920458587425
F0.0
sF46.81232535871056
F0.0
sF90.47050670722884
F0.0
sF90.3310719467752
F0.0
sF46.90412030964997
F0.0
sF86.50120761832456
F0.0
sF74.97090371795456
F0.0
sF48.570092408137825
F0.0
sF64.85051201339003
F0.0
sF35.845168080990085
F0.0
sF43.458078188108644
F0.0
sF55.21438025221634
F0.0
sF52.209253426500624
F0.0
sF43.2548163868659
F0.0
sF84.28444405346669
F0.0
sF57.28551739587099
F0.0
sF58.57152824097817
F0.0
sF91.03947991132488
F0.0
sF91.94318502991324
F0.0
sF29.980542920690997
F0.0
sF37.801204380587215
F0.0
sF86.27321590328692
F0.0
sF90.40466685242764
F0.0
sF65.90654777474518
F0.0
sF20.02590006283754
F0.0
sF91.59700880297702
F0.0
sF82.73259901701341
F0.0
sF12.9414970933256
F0.0
sF39.36287579217078
F0.0
sF48.774350390362976
F2872.1107776716804
sF92.97326173072845
F0.0
sF32.35564951059685
F51.70805027663898
sF91.62289003876734
F0.0
sF60.93237106024006
F0.0
sF33.68420217251255
F0.0
sF51.66511360390297
F0.0
sF49.825544608944845
F0.0
sF52.36657582858103
F0.0
sF88.78970117142694
F0.0
sF34.56852623145108
F0.0
sF29.25305897228746
F0.0
sF84.97219315435775
F0.0
sF92.93517915263575
F0.0
sF50.027053296920634
F0.0
sF88.8487236315864
F0.0
ssS'13'
p5
(dp6
F55.46800279503132
F30.538998863774083
sF13.399624034629847
F0.0
sF86.64898833146978
F0.0
sF20.358456906870508
F0.0
sF92.13696544017236
F0.0
sF19.004395331202318
F0.0
sF86.97729872140852
F0.0
sF47.654375402102914
F0.0
sF79.43497175584463
F0.0
sF73.04013549443482
F0.0
sF89.14218652166947
F0.0
sF57.183859462569046
F0.0
sF92.9588428302675
F0.0
sF34.94880940007197
F0.0
sF84.11636912056576
F0.0
sF90.449254959981
F0.0
sF100.0
F0.0
sF38.57045306057162
F0.0
sF92.43195257899498
F0.0
sF86.09812141238554
F0.0
sF94.79337296938155
F0.0
sF2.0109770323050946
F0.0
sF60.43802277087988
F0.0
sF87.19593096125648
F0.0
sF79.9960109506552
F0.0
sF89.3537078176033
F0.0
sF93.14353349522267
F0.0
sF23.983439152747145
F0.0
sF56.17723606151408
F16.08281686339182
sF87.88831642518156
F0.0
sF36.69718008266238
F0.0
sF27.562930013367748
F0.0
sF52.19631019627161
F78.15516336002729
sF87.93088971947972
F0.0
sF38.00115310843021
F0.0
sF96.51756037949488
F0.0
sF53.243200997307675
F63.02520270240162
sF82.22691129242558
F0.0
sF65.69364763145796
F0.0
sF88.23045229532943
F0.0
sF46.76583040552515
F0.0
sF25.97957964784327
F0.0
sF38.385932498830876
F0.0
sF55.968604654213266
F19.546920448132674
sF72.01646440110846
F0.0
sF95.92131140433415
F0.0
sF33.39858298908548
F0.0
sF52.37920458587425
F75.4672946781898
sF46.81232535871056
F0.0
sF90.47050670722884
F0.0
sF90.3310719467752
F0.0
sF46.90412030964997
F0.0
sF86.50120761832456
F0.0
sF74.97090371795456
F0.0
sF48.570092408137825
F0.0
sF64.85051201339003
F0.0
sF35.845168080990085
F0.0
sF43.458078188108644
F0.0
sF55.21438025221634
F36.215924590042434
sF52.209253426500624
F77.96428129804185
sF43.2548163868659
F0.0
sF84.28444405346669
F0.0
sF57.28551739587099
F0.0
sF58.57152824097817
F0.0
sF91.03947991132488
F0.0
sF91.94318502991324
F0.0
sF29.980542920690997
F0.0
sF37.801204380587215
F0.0
sF86.27321590328692
F0.0
sF90.40466685242764
F0.0
sF65.90654777474518
F0.0
sF20.02590006283754
F0.0
sF91.59700880297702
F0.0
sF82.73259901701341
F0.0
sF12.9414970933256
F0.0
sF39.36287579217078
F0.0
sF48.774350390362976
F1572.3166498486244
sF92.97326173072845
F0.0
sF32.35564951059685
F51.70805027663898
sF91.62289003876734
F0.0
sF60.93237106024006
F0.0
sF33.68420217251255
F0.0
sF51.66511360390297
F86.15217739697302
sF49.825544608944845
F116.30755451401691
sF52.36657582858103
F75.65228053941873
sF88.78970117142694
F0.0
sF34.56852623145108
F0.0
sF29.25305897228746
F0.0
sF84.97219315435775
F0.0
sF92.93517915263575
F0.0
sF50.027053296920634
F112.81801788501717
sF88.8487236315864
F0.0
ssS'12'
p7
(dp8
F55.46800279503132
F0.0
sF13.399624034629847
F0.0
sF86.64898833146978
F0.0
sF20.358456906870508
F0.0
sF92.13696544017236
F0.0
sF19.004395331202318
F0.0
sF86.97729872140852
F0.0
sF47.654375402102914
F0.0
sF79.43497175584463
F0.0
sF73.04013549443482
F0.0
sF89.14218652166947
F0.0
sF57.183859462569046
F0.0
sF92.9588428302675
F0.0
sF34.94880940007197
F0.0
sF84.11636912056576
F0.0
sF90.449254959981
F0.0
sF100.0
F0.0
sF38.57045306057162
F0.0
sF92.43195257899498
F0.0
sF86.09812141238554
F0.0
sF94.79337296938155
F0.0
sF2.0109770323050946
F0.0
sF60.43802277087988
F0.0
sF87.19593096125648
F0.0
sF79.9960109506552
F0.0
sF89.3537078176033
F0.0
sF93.14353349522267
F0.0
sF23.983439152747145
F0.0
sF56.17723606151408
F0.0
sF87.88831642518156
F0.0
sF36.69718008266238
F0.0
sF27.562930013367748
F0.0
sF52.19631019627161
F0.0
sF87.93088971947972
F0.0
sF38.00115310843021
F0.0
sF96.51756037949488
F0.0
sF53.243200997307675
F0.0
sF82.22691129242558
F0.0
sF65.69364763145796
F0.0
sF88.23045229532943
F0.0
sF46.76583040552515
F0.0
sF25.97957964784327
F0.0
sF38.385932498830876
F0.0
sF55.968604654213266
F0.0
sF72.01646440110846
F0.0
sF95.92131140433415
F0.0
sF33.39858298908548
F0.0
sF52.37920458587425
F0.0
sF46.81232535871056
F0.0
sF90.47050670722884
F0.0
sF90.3310719467752
F0.0
sF46.90412030964997
F0.0
sF86.50120761832456
F0.0
sF74.97090371795456
F0.0
sF48.570092408137825
F0.0
sF64.85051201339003
F0.0
sF35.845168080990085
F0.0
sF43.458078188108644
F0.0
sF55.21438025221634
F0.0
sF52.209253426500624
F0.0
sF43.2548163868659
F0.0
sF84.28444405346669
F0.0
sF57.28551739587099
F0.0
sF58.57152824097817
F0.0
sF91.03947991132488
F0.0
sF91.94318502991324
F0.0
sF29.980542920690997
F0.0
sF37.801204380587215
F0.0
sF86.27321590328692
F0.0
sF90.40466685242764
F0.0
sF65.90654777474518
F0.0
sF20.02590006283754
F0.0
sF91.59700880297702
F0.0
sF82.73259901701341
F0.0
sF12.9414970933256
F0.0
sF39.36287579217078
F0.0
sF48.774350390362976
F0.0
sF92.97326173072845
F0.0
sF32.35564951059685
F0.0
sF91.62289003876734
F201.00868316825375
sF60.93237106024006
F0.0
sF33.68420217251255
F0.0
sF51.66511360390297
F0.0
sF49.825544608944845
F0.0
sF52.36657582858103
F0.0
sF88.78970117142694
F0.0
sF34.56852623145108
F0.0
sF29.25305897228746
F0.0
sF84.97219315435775
F0.0
sF92.93517915263575
F0.0
sF50.027053296920634
F0.0
sF88.8487236315864
F0.0
ssS'1'
p9
(dp10
F55.46800279503132
F36.67967790508097
sF13.399624034629847
F0.0
sF86.64898833146978
F0.0
sF20.358456906870508
F0.0
sF92.13696544017236
F0.0
sF19.004395331202318
F0.0
sF86.97729872140852
F0.0
sF47.654375402102914
F0.0
sF79.43497175584463
F0.0
sF73.04013549443482
F0.0
sF89.14218652166947
F0.0
sF57.183859462569046
F61.99223104531621
sF92.9588428302675
F0.0
sF34.94880940007197
F0.0
sF84.11636912056576
F0.0
sF90.449254959981
F0.0
sF100.0
F0.0
sF38.57045306057162
F0.0
sF92.43195257899498
F0.0
sF86.09812141238554
F0.0
sF94.79337296938155
F0.0
sF2.0109770323050946
F0.0
sF60.43802277087988
F109.1207927391296
sF87.19593096125648
F0.0
sF79.9960109506552
F0.0
sF89.3537078176033
F0.0
sF93.14353349522267
F0.0
sF23.983439152747145
F0.0
sF56.17723606151408
F44.5205989072955
sF87.88831642518156
F0.0
sF36.69718008266238
F0.0
sF27.562930013367748
F0.0
sF52.19631019627161
F11.240250017954981
sF87.93088971947972
F0.0
sF38.00115310843021
F0.0
sF96.51756037949488
F0.0
sF53.243200997307675
F17.42563226955792
sF82.22691129242558
F0.0
sF65.69364763145796
F193.75172356256112
sF88.23045229532943
F0.0
sF46.76583040552515
F0.0
sF25.97957964784327
F0.0
sF38.385932498830876
F0.0
sF55.968604654213266
F42.16380535110477
sF72.01646440110846
F257.53163276016954
sF95.92131140433415
F0.0
sF33.39858298908548
F0.0
sF52.37920458587425
F12.2145047554612
sF46.81232535871056
F0.0
sF90.47050670722884
F0.0
sF90.3310719467752
F0.0
sF46.90412030964997
F0.0
sF86.50120761832456
F0.0
sF74.97090371795456
F0.0
sF48.570092408137825
F0.0
sF64.85051201339003
F185.24679369969328
sF35.845168080990085
F0.0
sF43.458078188108644
F0.0
sF55.21438025221634
F34.045477890292005
sF52.209253426500624
F11.331222655921785
sF43.2548163868659
F0.0
sF84.28444405346669
F0.0
sF57.28551739587099
F63.81442395705357
sF58.57152824097817
F86.86584523089978
sF91.03947991132488
F0.0
sF91.94318502991324
F0.0
sF29.980542920690997
F0.0
sF37.801204380587215
F0.0
sF86.27321590328692
F0.0
sF90.40466685242764
F0.0
sF65.90654777474518
F195.8993030831625
sF20.02590006283754
F0.0
sF91.59700880297702
F0.0
sF82.73259901701341
F0.0
sF12.9414970933256
F0.0
sF39.36287579217078
F0.0
sF48.774350390362976
F0.0
sF92.97326173072845
F0.0
sF32.35564951059685
F0.0
sF91.62289003876734
F0.0
sF60.93237106024006
F115.01510159149643
sF33.68420217251255
F0.0
sF51.66511360390297
F7.83098673306062
sF49.825544608944845
F2156.5289525594912
sF52.36657582858103
F12.147706812345593
sF88.78970117142694
F0.0
sF34.56852623145108
F0.0
sF29.25305897228746
F0.0
sF84.97219315435775
F0.0
sF92.93517915263575
F0.0
sF50.027053296920634
F1.3283956971350817
sF88.8487236315864
F0.0
ssS'0'
p11
(dp12
F55.46800279503132
F67.83713404162742
sF13.399624034629847
F0.0
sF86.64898833146978
F0.0
sF20.358456906870508
F0.0
sF92.13696544017236
F0.0
sF19.004395331202318
F0.0
sF86.97729872140852
F0.0
sF47.654375402102914
F0.0
sF79.43497175584463
F0.0
sF73.04013549443482
F0.0
sF89.14218652166947
F0.0
sF57.183859462569046
F74.84748319900719
sF92.9588428302675
F0.0
sF34.94880940007197
F0.0
sF84.11636912056576
F0.0
sF90.449254959981
F0.0
sF100.0
F0.0
sF38.57045306057162
F0.0
sF92.43195257899498
F0.0
sF86.09812141238554
F0.0
sF94.79337296938155
F0.0
sF2.0109770323050946
F0.0
sF60.43802277087988
F66.51958898610985
sF87.19593096125648
F0.0
sF79.9960109506552
F0.0
sF89.3537078176033
F0.0
sF93.14353349522267
F0.0
sF23.983439152747145
F0.0
sF56.17723606151408
F73.23183037277734
sF87.88831642518156
F0.0
sF36.69718008266238
F0.0
sF27.562930013367748
F0.0
sF52.19631019627161
F26.053715119539103
sF87.93088971947972
F0.0
sF38.00115310843021
F0.0
sF96.51756037949488
F0.0
sF53.243200997307675
F33.9917670434421
sF82.22691129242558
F0.0
sF65.69364763145796
F37.94547373585019
sF88.23045229532943
F0.0
sF46.76583040552515
F0.0
sF25.97957964784327
F0.0
sF38.385932498830876
F0.0
sF55.968604654213266
F71.64490102143719
sF72.01646440110846
F0.0
sF95.92131140433415
F0.0
sF33.39858298908548
F0.0
sF52.37920458587425
F27.419883727813872
sF46.81232535871056
F0.0
sF90.47050670722884
F0.0
sF90.3310719467752
F0.0
sF46.90412030964997
F0.0
sF86.50120761832456
F0.0
sF74.97090371795456
F0.0
sF48.570092408137825
F0.0
sF64.85051201339003
F43.005430653267716
sF35.845168080990085
F0.0
sF43.458078188108644
F0.0
sF55.21438025221634
F63.97883617016362
sF52.209253426500624
F26.127170964220106
sF43.2548163868659
F0.0
sF84.28444405346669
F0.0
sF57.28551739587099
F74.23739776103191
sF58.57152824097817
F66.51958898610985
sF91.03947991132488
F0.0
sF91.94318502991324
F0.0
sF29.980542920690997
F0.0
sF37.801204380587215
F0.0
sF86.27321590328692
F0.0
sF90.40466685242764
F0.0
sF65.90654777474518
F36.6677842044627
sF20.02590006283754
F0.0
sF91.59700880297702
F0.0
sF82.73259901701341
F0.0
sF12.9414970933256
F0.0
sF39.36287579217078
F0.0
sF48.774350390362976
F0.0
sF92.97326173072845
F0.0
sF32.35564951059685
F0.0
sF91.62289003876734
F0.0
sF60.93237106024006
F66.51958898610985
sF33.68420217251255
F0.0
sF51.66511360390297
F22.875931319805183
sF49.825544608944845
F9.409867822806275
sF52.36657582858103
F27.323824625884562
sF88.78970117142694
F0.0
sF34.56852623145108
F0.0
sF29.25305897228746
F0.0
sF84.97219315435775
F0.0
sF92.93517915263575
F0.0
sF50.027053296920634
F11.07123616890436
sF88.8487236315864
F0.0
ssS'3'
p13
(dp14
F55.46800279503132
F458.9855920327538
sF13.399624034629847
F0.0
sF86.64898833146978
F458.9855920327538
sF20.358456906870508
F0.0
sF92.13696544017236
F0.0
sF19.004395331202318
F0.0
sF86.97729872140852
F458.9855920327538
sF47.654375402102914
F0.0
sF79.43497175584463
F458.9855920327538
sF73.04013549443482
F458.9855920327538
sF89.14218652166947
F458.9855920327538
sF57.183859462569046
F458.9855920327538
sF92.9588428302675
F0.0
sF34.94880940007197
F0.0
sF84.11636912056576
F458.9855920327538
sF90.449254959981
F193.65157743855914
sF100.0
F0.0
sF38.57045306057162
F0.0
sF92.43195257899498
F0.0
sF86.09812141238554
F458.9855920327538
sF94.79337296938155
F0.0
sF2.0109770323050946
F0.0
sF60.43802277087988
F458.9855920327538
sF87.19593096125648
F458.9855920327538
sF79.9960109506552
F458.9855920327538
sF89.3537078176033
F458.9855920327538
sF93.14353349522267
F0.0
sF23.983439152747145
F0.0
sF56.17723606151408
F458.9855920327538
sF87.88831642518156
F458.9855920327538
sF36.69718008266238
F0.0
sF27.562930013367748
F0.0
sF52.19631019627161
F458.9855920327538
sF87.93088971947972
F458.9855920327538
sF38.00115310843021
F0.0
sF96.51756037949488
F0.0
sF53.243200997307675
F458.9855920327538
sF82.22691129242558
F458.9855920327538
sF65.69364763145796
F458.9855920327538
sF88.23045229532943
F458.9855920327538
sF46.76583040552515
F0.0
sF25.97957964784327
F0.0
sF38.385932498830876
F0.0
sF55.968604654213266
F458.9855920327538
sF72.01646440110846
F458.9855920327538
sF95.92131140433415
F0.0
sF33.39858298908548
F0.0
sF52.37920458587425
F458.9855920327538
sF46.81232535871056
F0.0
sF90.47050670722884
F190.1450067401749
sF90.3310719467752
F458.9855920327538
sF46.90412030964997
F0.0
sF86.50120761832456
F458.9855920327538
sF74.97090371795456
F458.9855920327538
sF48.570092408137825
F0.0
sF64.85051201339003
F458.9855920327538
sF35.845168080990085
F0.0
sF43.458078188108644
F0.0
sF55.21438025221634
F458.9855920327538
sF52.209253426500624
F458.9855920327538
sF43.2548163868659
F0.0
sF84.28444405346669
F458.9855920327538
sF57.28551739587099
F458.9855920327538
sF58.57152824097817
F458.9855920327538
sF91.03947991132488
F96.26356055213994
sF91.94318502991324
F0.0
sF29.980542920690997
F0.0
sF37.801204380587215
F0.0
sF86.27321590328692
F458.9855920327538
sF90.40466685242764
F458.9855920327538
sF65.90654777474518
F458.9855920327538
sF20.02590006283754
F0.0
sF91.59700880297702
F4.270443366466284
sF82.73259901701341
F458.9855920327538
sF12.9414970933256
F0.0
sF39.36287579217078
F0.0
sF48.774350390362976
F484.5771470064093
sF92.97326173072845
F0.0
sF32.35564951059685
F0.0
sF91.62289003876734
F0.0
sF60.93237106024006
F458.9855920327538
sF33.68420217251255
F0.0
sF51.66511360390297
F465.00679709773794
sF49.825544608944845
F484.5771470064093
sF52.36657582858103
F458.9855920327538
sF88.78970117142694
F458.9855920327538
sF34.56852623145108
F0.0
sF29.25305897228746
F0.0
sF84.97219315435775
F458.9855920327538
sF92.93517915263575
F0.0
sF50.027053296920634
F484.5771470064093
sF88.8487236315864
F458.9855920327538
ssS'2'
p15
(dp16
F55.46800279503132
F51.5911746983719
sF13.399624034629847
F0.0
sF86.64898833146978
F0.0
sF20.358456906870508
F0.0
sF92.13696544017236
F0.0
sF19.004395331202318
F0.0
sF86.97729872140852
F0.0
sF47.654375402102914
F0.0
sF79.43497175584463
F0.0
sF73.04013549443482
F0.0
sF89.14218652166947
F0.0
sF57.183859462569046
F60.604630653504465
sF92.9588428302675
F0.0
sF34.94880940007197
F0.0
sF84.11636912056576
F0.0
sF90.449254959981
F0.0
sF100.0
F0.0
sF38.57045306057162
F0.0
sF92.43195257899498
F0.0
sF86.09812141238554
F0.0
sF94.79337296938155
F0.0
sF2.0109770323050946
F0.0
sF60.43802277087988
F47.30842501710028
sF87.19593096125648
F0.0
sF79.9960109506552
F0.0
sF89.3537078176033
F0.0
sF93.14353349522267
F0.0
sF23.983439152747145
F0.0
sF56.17723606151408
F55.719701176057384
sF87.88831642518156
F0.0
sF36.69718008266238
F0.0
sF27.562930013367748
F0.0
sF52.19631019627161
F24.263756973810263
sF87.93088971947972
F0.0
sF38.00115310843021
F0.0
sF96.51756037949488
F0.0
sF53.243200997307675
F32.26954848094416
sF82.22691129242558
F0.0
sF65.69364763145796
F25.834435461758215
sF88.23045229532943
F0.0
sF46.76583040552515
F0.0
sF25.97957964784327
F0.0
sF38.385932498830876
F0.0
sF55.968604654213266
F54.56417460635916
sF72.01646440110846
F0.0
sF95.92131140433415
F0.0
sF33.39858298908548
F0.0
sF52.37920458587425
F24.179811142941812
sF46.81232535871056
F0.0
sF90.47050670722884
F0.0
sF90.3310719467752
F0.0
sF46.90412030964997
F0.0
sF86.50120761832456
F0.0
sF74.97090371795456
F0.0
sF48.570092408137825
F0.0
sF64.85051201339003
F29.27940840720855
sF35.845168080990085
F0.0
sF43.458078188108644
F0.0
sF55.21438025221634
F47.57212986564545
sF52.209253426500624
F24.24791192086631
sF43.2548163868659
F0.0
sF84.28444405346669
F0.0
sF57.28551739587099
F60.1892658860687
sF58.57152824097817
F54.93474635918401
sF91.03947991132488
F0.0
sF91.94318502991324
F0.0
sF29.980542920690997
F0.0
sF37.801204380587215
F0.0
sF86.27321590328692
F0.0
sF90.40466685242764
F0.0
sF65.90654777474518
F24.964545472544334
sF20.02590006283754
F0.0
sF91.59700880297702
F0.0
sF82.73259901701341
F0.0
sF12.9414970933256
F0.0
sF39.36287579217078
F0.0
sF48.774350390362976
F0.0
sF92.97326173072845
F0.0
sF32.35564951059685
F0.0
sF91.62289003876734
F0.0
sF60.93237106024006
F45.2885643375361
sF33.68420217251255
F0.0
sF51.66511360390297
F18.81322103475532
sF49.825544608944845
F2155.5935528787572
sF52.36657582858103
F24.05531843793148
sF88.78970117142694
F0.0
sF34.56852623145108
F0.0
sF29.25305897228746
F0.0
sF84.97219315435775
F0.0
sF92.93517915263575
F0.0
sF50.027053296920634
F0.0
sF88.8487236315864
F0.0
ssS'5'
p17
(dp18
F55.46800279503132
F70.88464725131514
sF13.399624034629847
F0.0
sF86.64898833146978
F0.0
sF20.358456906870508
F0.0
sF92.13696544017236
F0.0
sF19.004395331202318
F0.0
sF86.97729872140852
F0.0
sF47.654375402102914
F0.0
sF79.43497175584463
F0.0
sF73.04013549443482
F0.0
sF89.14218652166947
F0.0
sF57.183859462569046
F60.08728786234167
sF92.9588428302675
F0.0
sF34.94880940007197
F0.0
sF84.11636912056576
F0.0
sF90.449254959981
F0.0
sF100.0
F0.0
sF38.57045306057162
F0.0
sF92.43195257899498
F0.0
sF86.09812141238554
F0.0
sF94.79337296938155
F0.0
sF2.0109770323050946
F0.0
sF60.43802277087988
F34.58282601782981
sF87.19593096125648
F0.0
sF79.9960109506552
F0.0
sF89.3537078176033
F0.0
sF93.14353349522267
F0.0
sF23.983439152747145
F0.0
sF56.17723606151408
F67.97668544064749
sF87.88831642518156
F0.0
sF36.69718008266238
F0.0
sF27.562930013367748
F0.0
sF52.19631019627161
F48.87420287562642
sF87.93088971947972
F0.0
sF38.00115310843021
F0.0
sF96.51756037949488
F0.0
sF53.243200997307675
F58.54603453273499
sF82.22691129242558
F0.0
sF65.69364763145796
F0.0
sF88.23045229532943
F0.0
sF46.76583040552515
F0.0
sF25.97957964784327
F0.0
sF38.385932498830876
F0.0
sF55.968604654213266
F69.61183133313574
sF72.01646440110846
F0.0
sF95.92131140433415
F0.0
sF33.39858298908548
F0.0
sF52.37920458587425
F50.74224937110546
sF46.81232535871056
F0.0
sF90.47050670722884
F0.0
sF90.3310719467752
F0.0
sF46.90412030964997
F0.0
sF86.50120761832456
F0.0
sF74.97090371795456
F0.0
sF48.570092408137825
F0.0
sF64.85051201339003
F0.0
sF35.845168080990085
F0.0
sF43.458078188108644
F0.0
sF55.21438025221634
F70.04233851775764
sF52.209253426500624
F49.008885196871475
sF43.2548163868659
F0.0
sF84.28444405346669
F0.0
sF57.28551739587099
F59.29054515601537
sF58.57152824097817
F49.21145218397589
sF91.03947991132488
F0.0
sF91.94318502991324
F0.0
sF29.980542920690997
F0.0
sF37.801204380587215
F0.0
sF86.27321590328692
F0.0
sF90.40466685242764
F0.0
sF65.90654777474518
F0.0
sF20.02590006283754
F0.0
sF91.59700880297702
F0.0
sF82.73259901701341
F0.0
sF12.9414970933256
F0.0
sF39.36287579217078
F0.0
sF48.774350390362976
F0.0
sF92.97326173072845
F0.0
sF32.35564951059685
F0.0
sF91.62289003876734
F0.0
sF60.93237106024006
F30.708377845027172
sF33.68420217251255
F0.0
sF51.66511360390297
F43.020534613156386
sF49.825544608944845
F17.826518277614053
sF52.36657582858103
F50.61568871729986
sF88.78970117142694
F0.0
sF34.56852623145108
F0.0
sF29.25305897228746
F0.0
sF84.97219315435775
F0.0
sF92.93517915263575
F0.0
sF50.027053296920634
F20.958860154882355
sF88.8487236315864
F0.0
ssS'4'
p19
(dp20
F55.46800279503132
F0.0
sF13.399624034629847
F0.0
sF86.64898833146978
F0.0
sF20.358456906870508
F0.0
sF92.13696544017236
F0.0
sF19.004395331202318
F0.0
sF86.97729872140852
F0.0
sF47.654375402102914
F0.0
sF79.43497175584463
F0.0
sF73.04013549443482
F0.0
sF89.14218652166947
F0.0
sF57.183859462569046
F0.0
sF92.9588428302675
F0.0
sF34.94880940007197
F51.70805027663898
sF84.11636912056576
F0.0
sF90.449254959981
F0.0
sF100.0
F0.0
sF38.57045306057162
F0.0
sF92.43195257899498
F0.0
sF86.09812141238554
F0.0
sF94.79337296938155
F0.0
sF2.0109770323050946
F0.0
sF60.43802277087988
F0.0
sF87.19593096125648
F0.0
sF79.9960109506552
F0.0
sF89.3537078176033
F0.0
sF93.14353349522267
F0.0
sF23.983439152747145
F0.0
sF56.17723606151408
F0.0
sF87.88831642518156
F0.0
sF36.69718008266238
F0.0
sF27.562930013367748
F0.0
sF52.19631019627161
F0.0
sF87.93088971947972
F0.0
sF38.00115310843021
F0.0
sF96.51756037949488
F0.0
sF53.243200997307675
F0.0
sF82.22691129242558
F0.0
sF65.69364763145796
F0.0
sF88.23045229532943
F0.0
sF46.76583040552515
F0.0
sF25.97957964784327
F0.0
sF38.385932498830876
F0.0
sF55.968604654213266
F0.0
sF72.01646440110846
F0.0
sF95.92131140433415
F0.0
sF33.39858298908548
F51.70805027663898
sF52.37920458587425
F0.0
sF46.81232535871056
F0.0
sF90.47050670722884
F0.0
sF90.3310719467752
F0.0
sF46.90412030964997
F0.0
sF86.50120761832456
F0.0
sF74.97090371795456
F0.0
sF48.570092408137825
F0.0
sF64.85051201339003
F0.0
sF35.845168080990085
F51.70805027663898
sF43.458078188108644
F0.0
sF55.21438025221634
F0.0
sF52.209253426500624
F0.0
sF43.2548163868659
F0.0
sF84.28444405346669
F0.0
sF57.28551739587099
F0.0
sF58.57152824097817
F0.0
sF91.03947991132488
F0.0
sF91.94318502991324
F0.0
sF29.980542920690997
F0.0
sF37.801204380587215
F0.0
sF86.27321590328692
F0.0
sF90.40466685242764
F0.0
sF65.90654777474518
F0.0
sF20.02590006283754
F0.0
sF91.59700880297702
F0.0
sF82.73259901701341
F0.0
sF12.9414970933256
F0.0
sF39.36287579217078
F0.0
sF48.774350390362976
F0.0
sF92.97326173072845
F0.0
sF32.35564951059685
F51.70805027663898
sF91.62289003876734
F0.0
sF60.93237106024006
F0.0
sF33.68420217251255
F51.70805027663898
sF51.66511360390297
F0.0
sF49.825544608944845
F0.0
sF52.36657582858103
F0.0
sF88.78970117142694
F0.0
sF34.56852623145108
F51.70805027663898
sF29.25305897228746
F0.0
sF84.97219315435775
F0.0
sF92.93517915263575
F0.0
sF50.027053296920634
F0.0
sF88.8487236315864
F0.0
ssS'7'
p21
(dp22
F55.46800279503132
F0.0
sF13.399624034629847
F0.0
sF86.64898833146978
F0.0
sF20.358456906870508
F0.0
sF92.13696544017236
F0.0
sF19.004395331202318
F0.0
sF86.97729872140852
F0.0
sF47.654375402102914
F0.0
sF79.43497175584463
F0.0
sF73.04013549443482
F0.0
sF89.14218652166947
F0.0
sF57.183859462569046
F0.0
sF92.9588428302675
F0.0
sF34.94880940007197
F0.0
sF84.11636912056576
F0.0
sF90.449254959981
F0.0
sF100.0
F0.0
sF38.57045306057162
F0.0
sF92.43195257899498
F0.0
sF86.09812141238554
F0.0
sF94.79337296938155
F0.0
sF2.0109770323050946
F0.0
sF60.43802277087988
F0.0
sF87.19593096125648
F0.0
sF79.9960109506552
F0.0
sF89.3537078176033
F0.0
sF93.14353349522267
F0.0
sF23.983439152747145
F0.0
sF56.17723606151408
F0.0
sF87.88831642518156
F0.0
sF36.69718008266238
F0.0
sF27.562930013367748
F0.0
sF52.19631019627161
F68.94454441321149
sF87.93088971947972
F0.0
sF38.00115310843021
F0.0
sF96.51756037949488
F0.0
sF53.243200997307675
F52.27344773108874
sF82.22691129242558
F0.0
sF65.69364763145796
F0.0
sF88.23045229532943
F0.0
sF46.76583040552515
F0.0
sF25.97957964784327
F0.0
sF38.385932498830876
F0.0
sF55.968604654213266
F0.0
sF72.01646440110846
F0.0
sF95.92131140433415
F0.0
sF33.39858298908548
F0.0
sF52.37920458587425
F67.50788908465735
sF46.81232535871056
F0.0
sF90.47050670722884
F0.0
sF90.3310719467752
F0.0
sF46.90412030964997
F0.0
sF86.50120761832456
F0.0
sF74.97090371795456
F0.0
sF48.570092408137825
F0.0
sF64.85051201339003
F0.0
sF35.845168080990085
F0.0
sF43.458078188108644
F0.0
sF55.21438025221634
F5.676925726268352
sF52.209253426500624
F68.852160724248
sF43.2548163868659
F0.0
sF84.28444405346669
F0.0
sF57.28551739587099
F0.0
sF58.57152824097817
F0.0
sF91.03947991132488
F0.0
sF91.94318502991324
F0.0
sF29.980542920690997
F0.0
sF37.801204380587215
F0.0
sF86.27321590328692
F0.0
sF90.40466685242764
F0.0
sF65.90654777474518
F0.0
sF20.02590006283754
F0.0
sF91.59700880297702
F0.0
sF82.73259901701341
F0.0
sF12.9414970933256
F0.0
sF39.36287579217078
F0.0
sF48.774350390362976
F815.216980816647
sF92.97326173072845
F0.0
sF32.35564951059685
F0.0
sF91.62289003876734
F0.0
sF60.93237106024006
F0.0
sF33.68420217251255
F0.0
sF51.66511360390297
F72.8175765974349
sF49.825544608944845
F87.46073749134297
sF52.36657582858103
F67.73681362728931
sF88.78970117142694
F0.0
sF34.56852623145108
F0.0
sF29.25305897228746
F0.0
sF84.97219315435775
F0.0
sF92.93517915263575
F0.0
sF50.027053296920634
F85.76356788057508
sF88.8487236315864
F0.0
ssS'6'
p23
(dp24
F55.46800279503132
F0.0
sF13.399624034629847
F0.0
sF86.64898833146978
F0.0
sF20.358456906870508
F0.0
sF92.13696544017236
F0.0
sF19.004395331202318
F0.0
sF86.97729872140852
F0.0
sF47.654375402102914
F0.0
sF79.43497175584463
F0.0
sF73.04013549443482
F0.0
sF89.14218652166947
F0.0
sF57.183859462569046
F0.0
sF92.9588428302675
F0.0
sF34.94880940007197
F0.0
sF84.11636912056576
F0.0
sF90.449254959981
F0.0
sF100.0
F0.0
sF38.57045306057162
F0.0
sF92.43195257899498
F0.0
sF86.09812141238554
F0.0
sF94.79337296938155
F0.0
sF2.0109770323050946
F0.0
sF60.43802277087988
F0.0
sF87.19593096125648
F0.0
sF79.9960109506552
F0.0
sF89.3537078176033
F0.0
sF93.14353349522267
F0.0
sF23.983439152747145
F0.0
sF56.17723606151408
F0.0
sF87.88831642518156
F0.0
sF36.69718008266238
F0.0
sF27.562930013367748
F0.0
sF52.19631019627161
F0.0
sF87.93088971947972
F0.0
sF38.00115310843021
F0.0
sF96.51756037949488
F0.0
sF53.243200997307675
F0.0
sF82.22691129242558
F0.0
sF65.69364763145796
F0.0
sF88.23045229532943
F0.0
sF46.76583040552515
F0.0
sF25.97957964784327
F0.0
sF38.385932498830876
F0.0
sF55.968604654213266
F0.0
sF72.01646440110846
F0.0
sF95.92131140433415
F0.0
sF33.39858298908548
F0.0
sF52.37920458587425
F0.0
sF46.81232535871056
F0.0
sF90.47050670722884
F0.0
sF90.3310719467752
F0.0
sF46.90412030964997
F0.0
sF86.50120761832456
F0.0
sF74.97090371795456
F0.0
sF48.570092408137825
F0.0
sF64.85051201339003
F0.0
sF35.845168080990085
F0.0
sF43.458078188108644
F0.0
sF55.21438025221634
F0.0
sF52.209253426500624
F0.0
sF43.2548163868659
F0.0
sF84.28444405346669
F0.0
sF57.28551739587099
F0.0
sF58.57152824097817
F0.0
sF91.03947991132488
F0.0
sF91.94318502991324
F0.0
sF29.980542920690997
F0.0
sF37.801204380587215
F0.0
sF86.27321590328692
F0.0
sF90.40466685242764
F0.0
sF65.90654777474518
F0.0
sF20.02590006283754
F0.0
sF91.59700880297702
F0.0
sF82.73259901701341
F0.0
sF12.9414970933256
F0.0
sF39.36287579217078
F0.0
sF48.774350390362976
F0.0
sF92.97326173072845
F0.0
sF32.35564951059685
F0.0
sF91.62289003876734
F0.0
sF60.93237106024006
F0.0
sF33.68420217251255
F0.0
sF51.66511360390297
F0.0
sF49.825544608944845
F0.0
sF52.36657582858103
F0.0
sF88.78970117142694
F0.0
sF34.56852623145108
F0.0
sF29.25305897228746
F0.0
sF84.97219315435775
F0.0
sF92.93517915263575
F0.0
sF50.027053296920634
F0.0
sF88.8487236315864
F0.0
ssS'9'
p25
(dp26
F55.46800279503132
F0.0
sF13.399624034629847
F0.0
sF86.64898833146978
F0.0
sF20.358456906870508
F0.0
sF92.13696544017236
F0.0
sF19.004395331202318
F0.0
sF86.97729872140852
F0.0
sF47.654375402102914
F0.0
sF79.43497175584463
F0.0
sF73.04013549443482
F0.0
sF89.14218652166947
F0.0
sF57.183859462569046
F0.0
sF92.9588428302675
F0.0
sF34.94880940007197
F0.0
sF84.11636912056576
F0.0
sF90.449254959981
F0.0
sF100.0
F0.0
sF38.57045306057162
F0.0
sF92.43195257899498
F0.0
sF86.09812141238554
F0.0
sF94.79337296938155
F0.0
sF2.0109770323050946
F0.0
sF60.43802277087988
F0.0
sF87.19593096125648
F0.0
sF79.9960109506552
F0.0
sF89.3537078176033
F0.0
sF93.14353349522267
F0.0
sF23.983439152747145
F0.0
sF56.17723606151408
F0.0
sF87.88831642518156
F0.0
sF36.69718008266238
F0.0
sF27.562930013367748
F0.0
sF52.19631019627161
F0.0
sF87.93088971947972
F0.0
sF38.00115310843021
F0.0
sF96.51756037949488
F0.0
sF53.243200997307675
F0.0
sF82.22691129242558
F0.0
sF65.69364763145796
F0.0
sF88.23045229532943
F0.0
sF46.76583040552515
F0.0
sF25.97957964784327
F0.0
sF38.385932498830876
F0.0
sF55.968604654213266
F0.0
sF72.01646440110846
F257.53163276016954
sF95.92131140433415
F0.0
sF33.39858298908548
F0.0
sF52.37920458587425
F0.0
sF46.81232535871056
F0.0
sF90.47050670722884
F0.0
sF90.3310719467752
F0.0
sF46.90412030964997
F0.0
sF86.50120761832456
F0.0
sF74.97090371795456
F0.0
sF48.570092408137825
F0.0
sF64.85051201339003
F0.0
sF35.845168080990085
F51.70805027663898
sF43.458078188108644
F0.0
sF55.21438025221634
F0.0
sF52.209253426500624
F0.0
sF43.2548163868659
F0.0
sF84.28444405346669
F0.0
sF57.28551739587099
F0.0
sF58.57152824097817
F0.0
sF91.03947991132488
F0.0
sF91.94318502991324
F0.0
sF29.980542920690997
F0.0
sF37.801204380587215
F0.0
sF86.27321590328692
F0.0
sF90.40466685242764
F0.0
sF65.90654777474518
F0.0
sF20.02590006283754
F0.0
sF91.59700880297702
F0.0
sF82.73259901701341
F0.0
sF12.9414970933256
F0.0
sF39.36287579217078
F0.0
sF48.774350390362976
F0.0
sF92.97326173072845
F0.0
sF32.35564951059685
F0.0
sF91.62289003876734
F0.0
sF60.93237106024006
F0.0
sF33.68420217251255
F0.0
sF51.66511360390297
F0.0
sF49.825544608944845
F0.0
sF52.36657582858103
F0.0
sF88.78970117142694
F0.0
sF34.56852623145108
F0.0
sF29.25305897228746
F0.0
sF84.97219315435775
F0.0
sF92.93517915263575
F0.0
sF50.027053296920634
F0.0
sF88.8487236315864
F0.0
ssS'8'
p27
(dp28
F55.46800279503132
F0.0
sF13.399624034629847
F0.0
sF86.64898833146978
F0.0
sF20.358456906870508
F0.0
sF92.13696544017236
F0.0
sF19.004395331202318
F0.0
sF86.97729872140852
F0.0
sF47.654375402102914
F0.0
sF79.43497175584463
F0.0
sF73.04013549443482
F0.0
sF89.14218652166947
F0.0
sF57.183859462569046
F0.0
sF92.9588428302675
F0.0
sF34.94880940007197
F0.0
sF84.11636912056576
F0.0
sF90.449254959981
F0.0
sF100.0
F0.0
sF38.57045306057162
F0.0
sF92.43195257899498
F0.0
sF86.09812141238554
F0.0
sF94.79337296938155
F0.0
sF2.0109770323050946
F0.0
sF60.43802277087988
F0.0
sF87.19593096125648
F0.0
sF79.9960109506552
F0.0
sF89.3537078176033
F0.0
sF93.14353349522267
F0.0
sF23.983439152747145
F0.0
sF56.17723606151408
F0.0
sF87.88831642518156
F0.0
sF36.69718008266238
F0.0
sF27.562930013367748
F0.0
sF52.19631019627161
F0.0
sF87.93088971947972
F0.0
sF38.00115310843021
F0.0
sF96.51756037949488
F0.0
sF53.243200997307675
F0.0
sF82.22691129242558
F0.0
sF65.69364763145796
F0.0
sF88.23045229532943
F0.0
sF46.76583040552515
F0.0
sF25.97957964784327
F0.0
sF38.385932498830876
F0.0
sF55.968604654213266
F0.0
sF72.01646440110846
F0.0
sF95.92131140433415
F0.0
sF33.39858298908548
F0.0
sF52.37920458587425
F0.0
sF46.81232535871056
F0.0
sF90.47050670722884
F0.0
sF90.3310719467752
F0.0
sF46.90412030964997
F0.0
sF86.50120761832456
F0.0
sF74.97090371795456
F0.0
sF48.570092408137825
F0.0
sF64.85051201339003
F0.0
sF35.845168080990085
F25.85402513831949
sF43.458078188108644
F0.0
sF55.21438025221634
F0.0
sF52.209253426500624
F0.0
sF43.2548163868659
F0.0
sF84.28444405346669
F0.0
sF57.28551739587099
F0.0
sF58.57152824097817
F0.0
sF91.03947991132488
F0.0
sF91.94318502991324
F0.0
sF29.980542920690997
F0.0
sF37.801204380587215
F0.0
sF86.27321590328692
F0.0
sF90.40466685242764
F0.0
sF65.90654777474518
F0.0
sF20.02590006283754
F0.0
sF91.59700880297702
F0.0
sF82.73259901701341
F0.0
sF12.9414970933256
F0.0
sF39.36287579217078
F0.0
sF48.774350390362976
F0.0
sF92.97326173072845
F0.0
sF32.35564951059685
F0.0
sF91.62289003876734
F0.0
sF60.93237106024006
F0.0
sF33.68420217251255
F0.0
sF51.66511360390297
F0.0
sF49.825544608944845
F0.0
sF52.36657582858103
F0.0
sF88.78970117142694
F0.0
sF34.56852623145108
F0.0
sF29.25305897228746
F0.0
sF84.97219315435775
F0.0
sF92.93517915263575
F0.0
sF50.027053296920634
F0.0
sF88.8487236315864
F0.0
ss.