(dp0
S'1'
p1
(dp2
F43.20861816893123
F0.0
sF79.96710253478658
F0.0
sF72.13340058339028
F0.0
sF69.1274499599022
F0.0
sF54.44303181777067
F0.0
sF81.49450029381379
F0.0
sF7.019389720967818
F0.0
sF90.01182075351332
F0.0
sF19.183559836963102
F0.0
sF58.436696135020085
F0.0
sF92.02119665755635
F0.0
sF7.6756378286387426
F0.0
sF61.55169819227122
F0.0
sF0.6834828486469102
F0.0
sF58.51067902088869
F0.0
sF88.84119756031919
F0.0
sF41.18266119186523
F0.0
sF29.60435405774298
F0.0
sF54.278643052149015
F968.1332074376188
sF70.95868453710477
F0.0
sF73.50359888373906
F0.0
sF21.858121399769864
F0.0
sF100.0
F0.0
sF69.56169995221181
F0.0
sF30.066900040240178
F0.0
sF69.5706245894795
F0.0
sF68.04041227484754
F0.0
ssS'0'
p3
(dp4
F43.20861816893123
F0.0
sF79.96710253478658
F0.0
sF72.13340058339028
F0.0
sF69.1274499599022
F0.0
sF54.44303181777067
F0.0
sF81.49450029381379
F0.0
sF7.019389720967818
F0.0
sF90.01182075351332
F0.0
sF19.183559836963102
F0.0
sF58.436696135020085
F0.0
sF92.02119665755635
F0.0
sF7.6756378286387426
F0.0
sF61.55169819227122
F0.0
sF0.6834828486469102
F0.0
sF58.51067902088869
F0.0
sF88.84119756031919
F0.0
sF41.18266119186523
F0.0
sF29.60435405774298
F0.0
sF54.278643052149015
F0.0
sF70.95868453710477
F0.0
sF73.50359888373906
F0.0
sF21.858121399769864
F6149.631904790108
sF100.0
F0.0
sF69.56169995221181
F0.0
sF30.066900040240178
F0.0
sF69.5706245894795
F0.0
sF68.04041227484754
F0.0
ssS'3'
p5
(dp6
F43.20861816893123
F854.542172171361
sF79.96710253478658
F0.0
sF72.13340058339028
F0.0
sF69.1274499599022
F0.0
sF54.44303181777067
F964.652334743715
sF81.49450029381379
F0.0
sF7.019389720967818
F0.0
sF90.01182075351332
F0.0
sF19.183559836963102
F0.0
sF58.436696135020085
F0.0
sF92.02119665755635
F0.0
sF7.6756378286387426
F0.0
sF61.55169819227122
F0.0
sF0.6834828486469102
F0.0
sF58.51067902088869
F0.0
sF88.84119756031919
F0.0
sF41.18266119186523
F1929.199092721323
sF29.60435405774298
F0.0
sF54.278643052149015
F955.8564614239564
sF70.95868453710477
F0.0
sF73.50359888373906
F0.0
sF21.858121399769864
F0.0
sF100.0
F0.0
sF69.56169995221181
F0.0
sF30.066900040240178
F1480.8081144074656
sF69.5706245894795
F0.0
sF68.04041227484754
F0.0
ssS'2'
p7
(dp8
F43.20861816893123
F1001.1157158284683
sF79.96710253478658
F0.0
sF72.13340058339028
F0.0
sF69.1274499599022
F0.0
sF54.44303181777067
F0.0
sF81.49450029381379
F0.0
sF7.019389720967818
F0.0
sF90.01182075351332
F0.0
sF19.183559836963102
F0.0
sF58.436696135020085
F0.0
sF92.02119665755635
F0.0
sF7.6756378286387426
F0.0
sF61.55169819227122
F0.0
sF0.6834828486469102
F0.0
sF58.51067902088869
F0.0
sF88.84119756031919
F0.0
sF41.18266119186523
F1080.2969534263395
sF29.60435405774298
F1490.6023584001175
sF54.278643052149015
F8.795873319758545
sF70.95868453710477
F0.0
sF73.50359888373906
F0.0
sF21.858121399769864
F0.0
sF100.0
F0.0
sF69.56169995221181
F0.0
sF30.066900040240178
F1672.184568417629
sF69.5706245894795
F0.0
sF68.04041227484754
F0.0
ssS'5'
p9
(dp10
F43.20861816893123
F77.12765418150437
sF79.96710253478658
F0.0
sF72.13340058339028
F0.0
sF69.1274499599022
F0.0
sF54.44303181777067
F0.0
sF81.49450029381379
F0.0
sF7.019389720967818
F0.0
sF90.01182075351332
F0.0
sF19.183559836963102
F0.0
sF58.436696135020085
F0.0
sF92.02119665755635
F0.0
sF7.6756378286387426
F0.0
sF61.55169819227122
F0.0
sF0.6834828486469102
F0.0
sF58.51067902088869
F0.0
sF88.84119756031919
F0.0
sF41.18266119186523
F1245.4358898011908
sF29.60435405774298
F0.0
sF54.278643052149015
F968.1332074376188
sF70.95868453710477
F0.0
sF73.50359888373906
F0.0
sF21.858121399769864
F0.0
sF100.0
F0.0
sF69.56169995221181
F0.0
sF30.066900040240178
F0.0
sF69.5706245894795
F0.0
sF68.04041227484754
F0.0
ssS'4'
p11
(dp12
F43.20861816893123
F0.0
sF79.96710253478658
F0.0
sF72.13340058339028
F0.0
sF69.1274499599022
F0.0
sF54.44303181777067
F964.652334743715
sF81.49450029381379
F0.0
sF7.019389720967818
F0.0
sF90.01182075351332
F0.0
sF19.183559836963102
F0.0
sF58.436696135020085
F0.0
sF92.02119665755635
F0.0
sF7.6756378286387426
F0.0
sF61.55169819227122
F0.0
sF0.6834828486469102
F0.0
sF58.51067902088869
F0.0
sF88.84119756031919
F0.0
sF41.18266119186523
F0.0
sF29.60435405774298
F0.0
sF54.278643052149015
F0.0
sF70.95868453710477
F0.0
sF73.50359888373906
F0.0
sF21.858121399769864
F0.0
sF100.0
F0.0
sF69.56169995221181
F0.0
sF30.066900040240178
F0.0
sF69.5706245894795
F0.0
sF68.04041227484754
F0.0
ssS'6'
p13
(dp14
F43.20861816893123
F0.0
sF79.96710253478658
F0.0
sF72.13340058339028
F0.0
sF69.1274499599022
F0.0
sF54.44303181777067
F0.0
sF81.49450029381379
F0.0
sF7.019389720967818
F0.0
sF90.01182075351332
F0.0
sF19.183559836963102
F0.0
sF58.436696135020085
F0.0
sF92.02119665755635
F0.0
sF7.6756378286387426
F0.0
sF61.55169819227122
F0.0
sF0.6834828486469102
F0.0
sF58.51067902088869
F0.0
sF88.84119756031919
F0.0
sF41.18266119186523
F168.7253858348619
sF29.60435405774298
F6149.631904790108
sF54.278643052149015
F0.0
sF70.95868453710477
F0.0
sF73.50359888373906
F0.0
sF21.858121399769864
F6149.631904790108
sF100.0
F0.0
sF69.56169995221181
F0.0
sF30.066900040240178
F2986.8449779723605
sF69.5706245894795
F0.0
sF68.04041227484754
F0.0
ss.