(dp0
S'11'
p1
(dp2
F91.3572510681584
F0.0
sF79.719696122442
F0.0
sF87.59809891560803
F0.0
sF30.844390921435476
F0.0
sF19.464723671803384
F0.0
sF59.81188257953302
F0.0
sF4.334844148233774
F0.0
sF66.61258767478886
F0.0
sF58.21501196472821
F0.0
sF50.17458005599787
F0.0
sF58.937719787174046
F0.0
sF49.189194269558804
F0.0
sF90.11781970568347
F0.0
sF62.25474996541727
F0.0
sF80.43362586399856
F0.0
sF95.64179467196325
F0.0
sF75.61133758629083
F0.0
sF74.53614233439595
F0.0
sF47.77004338249818
F0.0
sF25.663944764876
F0.0
sF38.78222928229806
F0.0
sF85.36940852710971
F0.0
sF72.14772267067353
F0.0
sF66.21175640182473
F0.0
sF56.844750749092604
F0.0
sF56.75009679142086
F0.0
sF76.96713310136465
F0.0
sF42.37502452324609
F0.0
sF78.88811962576555
F0.0
sF55.90385231372524
F0.0
sF53.26420006934409
F0.0
sF19.55638406832024
F0.0
sF70.1131204334166
F0.0
sF52.8020153247986
F0.0
sF66.07529642788693
F0.0
sF57.252683736914136
F0.0
sF68.60381390121205
F0.0
sF56.18363412885777
F0.0
sF49.25571668575496
F0.0
sF65.304547190172
F0.0
sF50.51858373623379
F0.0
sF38.11432122798657
F0.0
sF63.84570176725944
F0.0
sF61.83343230261859
F0.0
sF70.41089718708193
F0.0
sF38.98052067218947
F0.0
sF57.0352046061502
F0.0
sF100.0
F0.0
sF43.113230562865695
F0.0
sF51.99830904991912
F0.0
sF72.4047984590757
F0.0
sF73.96697048591115
F0.0
sF70.10970123028187
F0.0
sF60.566237537684444
F0.0
sF90.54177689726413
F0.0
sF22.038587229492208
F0.0
sF94.12644433123309
F0.0
sF38.889983588195406
F0.0
sF52.12945503663333
F0.0
sF48.224780585502714
F0.0
sF25.539542180380113
F0.0
sF61.151941146046454
F0.0
sF76.02239437927346
F0.0
ssS'10'
p3
(dp4
F91.3572510681584
F0.0
sF79.719696122442
F0.0
sF87.59809891560803
F0.0
sF30.844390921435476
F0.0
sF19.464723671803384
F0.0
sF59.81188257953302
F0.0
sF4.334844148233774
F0.0
sF66.61258767478886
F0.0
sF58.21501196472821
F0.0
sF50.17458005599787
F0.0
sF58.937719787174046
F0.0
sF49.189194269558804
F0.0
sF90.11781970568347
F0.0
sF62.25474996541727
F0.0
sF80.43362586399856
F0.0
sF95.64179467196325
F0.0
sF75.61133758629083
F0.0
sF74.53614233439595
F0.0
sF47.77004338249818
F0.0
sF25.663944764876
F0.0
sF38.78222928229806
F0.0
sF85.36940852710971
F0.0
sF72.14772267067353
F138.45359158818277
sF66.21175640182473
F0.0
sF56.844750749092604
F0.0
sF56.75009679142086
F0.0
sF76.96713310136465
F0.0
sF42.37502452324609
F0.0
sF78.88811962576555
F0.0
sF55.90385231372524
F13.372062987909421
sF53.26420006934409
F0.0
sF19.55638406832024
F0.0
sF70.1131204334166
F0.0
sF52.8020153247986
F0.0
sF66.07529642788693
F0.0
sF57.252683736914136
F0.0
sF68.60381390121205
F0.0
sF56.18363412885777
F0.0
sF49.25571668575496
F0.0
sF65.304547190172
F0.0
sF50.51858373623379
F0.0
sF38.11432122798657
F0.0
sF63.84570176725944
F0.0
sF61.83343230261859
F0.0
sF70.41089718708193
F0.0
sF38.98052067218947
F0.0
sF57.0352046061502
F0.0
sF100.0
F0.0
sF43.113230562865695
F0.0
sF51.99830904991912
F0.0
sF72.4047984590757
F0.0
sF73.96697048591115
F0.0
sF70.10970123028187
F0.0
sF60.566237537684444
F0.0
sF90.54177689726413
F0.0
sF22.038587229492208
F0.0
sF94.12644433123309
F0.0
sF38.889983588195406
F0.0
sF52.12945503663333
F0.0
sF48.224780585502714
F0.0
sF25.539542180380113
F0.0
sF61.151941146046454
F0.0
sF76.02239437927346
F0.0
ssS'13'
p5
(dp6
F91.3572510681584
F0.0
sF79.719696122442
F0.0
sF87.59809891560803
F0.0
sF30.844390921435476
F0.0
sF19.464723671803384
F0.0
sF59.81188257953302
F0.0
sF4.334844148233774
F0.0
sF66.61258767478886
F0.0
sF58.21501196472821
F0.0
sF50.17458005599787
F0.0
sF58.937719787174046
F0.0
sF49.189194269558804
F0.0
sF90.11781970568347
F0.0
sF62.25474996541727
F0.0
sF80.43362586399856
F0.0
sF95.64179467196325
F0.0
sF75.61133758629083
F0.0
sF74.53614233439595
F0.0
sF47.77004338249818
F0.0
sF25.663944764876
F0.0
sF38.78222928229806
F0.0
sF85.36940852710971
F0.0
sF72.14772267067353
F0.0
sF66.21175640182473
F0.0
sF56.844750749092604
F0.0
sF56.75009679142086
F0.0
sF76.96713310136465
F0.0
sF42.37502452324609
F0.0
sF78.88811962576555
F0.0
sF55.90385231372524
F0.0
sF53.26420006934409
F9.351849709163952
sF19.55638406832024
F0.0
sF70.1131204334166
F0.0
sF52.8020153247986
F10.989293534599026
sF66.07529642788693
F0.0
sF57.252683736914136
F0.0
sF68.60381390121205
F0.0
sF56.18363412885777
F0.0
sF49.25571668575496
F0.0
sF65.304547190172
F0.0
sF50.51858373623379
F0.0
sF38.11432122798657
F0.0
sF63.84570176725944
F0.0
sF61.83343230261859
F0.0
sF70.41089718708193
F0.0
sF38.98052067218947
F0.0
sF57.0352046061502
F0.0
sF100.0
F0.0
sF43.113230562865695
F0.0
sF51.99830904991912
F0.0
sF72.4047984590757
F0.0
sF73.96697048591115
F0.0
sF70.10970123028187
F0.0
sF60.566237537684444
F0.0
sF90.54177689726413
F0.0
sF22.038587229492208
F0.0
sF94.12644433123309
F0.0
sF38.889983588195406
F0.0
sF52.12945503663333
F13.372062987909421
sF48.224780585502714
F0.0
sF25.539542180380113
F0.0
sF61.151941146046454
F0.0
sF76.02239437927346
F0.0
ssS'12'
p7
(dp8
F91.3572510681584
F0.0
sF79.719696122442
F0.0
sF87.59809891560803
F0.0
sF30.844390921435476
F0.0
sF19.464723671803384
F0.0
sF59.81188257953302
F0.0
sF4.334844148233774
F0.0
sF66.61258767478886
F0.0
sF58.21501196472821
F0.0
sF50.17458005599787
F0.0
sF58.937719787174046
F0.0
sF49.189194269558804
F0.0
sF90.11781970568347
F0.0
sF62.25474996541727
F0.0
sF80.43362586399856
F0.0
sF95.64179467196325
F0.0
sF75.61133758629083
F0.0
sF74.53614233439595
F0.0
sF47.77004338249818
F0.0
sF25.663944764876
F0.0
sF38.78222928229806
F0.0
sF85.36940852710971
F0.0
sF72.14772267067353
F0.0
sF66.21175640182473
F0.0
sF56.844750749092604
F0.0
sF56.75009679142086
F0.0
sF76.96713310136465
F0.0
sF42.37502452324609
F0.0
sF78.88811962576555
F0.0
sF55.90385231372524
F0.0
sF53.26420006934409
F0.0
sF19.55638406832024
F0.0
sF70.1131204334166
F1260.013009951444
sF52.8020153247986
F0.0
sF66.07529642788693
F0.0
sF57.252683736914136
F0.0
sF68.60381390121205
F0.0
sF56.18363412885777
F0.0
sF49.25571668575496
F0.0
sF65.304547190172
F0.0
sF50.51858373623379
F0.0
sF38.11432122798657
F0.0
sF63.84570176725944
F0.0
sF61.83343230261859
F0.0
sF70.41089718708193
F0.0
sF38.98052067218947
F0.0
sF57.0352046061502
F0.0
sF100.0
F0.0
sF43.113230562865695
F0.0
sF51.99830904991912
F0.0
sF72.4047984590757
F0.0
sF73.96697048591115
F0.0
sF70.10970123028187
F0.0
sF60.566237537684444
F0.0
sF90.54177689726413
F0.0
sF22.038587229492208
F0.0
sF94.12644433123309
F0.0
sF38.889983588195406
F0.0
sF52.12945503663333
F13.372062987909421
sF48.224780585502714
F0.0
sF25.539542180380113
F0.0
sF61.151941146046454
F0.0
sF76.02239437927346
F0.0
ssS'1'
p9
(dp10
F91.3572510681584
F0.0
sF79.719696122442
F0.0
sF87.59809891560803
F0.0
sF30.844390921435476
F0.0
sF19.464723671803384
F0.0
sF59.81188257953302
F0.0
sF4.334844148233774
F0.0
sF66.61258767478886
F0.0
sF58.21501196472821
F0.0
sF50.17458005599787
F0.0
sF58.937719787174046
F0.0
sF49.189194269558804
F0.0
sF90.11781970568347
F0.0
sF62.25474996541727
F0.0
sF80.43362586399856
F0.0
sF95.64179467196325
F0.0
sF75.61133758629083
F0.0
sF74.53614233439595
F0.0
sF47.77004338249818
F0.0
sF25.663944764876
F0.0
sF38.78222928229806
F0.0
sF85.36940852710971
F0.0
sF72.14772267067353
F57.822169715258504
sF66.21175640182473
F0.0
sF56.844750749092604
F0.0
sF56.75009679142086
F0.0
sF76.96713310136465
F0.0
sF42.37502452324609
F0.0
sF78.88811962576555
F0.0
sF55.90385231372524
F0.0
sF53.26420006934409
F0.0
sF19.55638406832024
F0.0
sF70.1131204334166
F1260.013009951444
sF52.8020153247986
F0.0
sF66.07529642788693
F0.0
sF57.252683736914136
F0.0
sF68.60381390121205
F0.0
sF56.18363412885777
F0.0
sF49.25571668575496
F0.0
sF65.304547190172
F0.0
sF50.51858373623379
F0.0
sF38.11432122798657
F0.0
sF63.84570176725944
F0.0
sF61.83343230261859
F0.0
sF70.41089718708193
F749.4343937707764
sF38.98052067218947
F0.0
sF57.0352046061502
F0.0
sF100.0
F0.0
sF43.113230562865695
F0.0
sF51.99830904991912
F0.0
sF72.4047984590757
F31.596504677026896
sF73.96697048591115
F0.0
sF70.10970123028187
F0.0
sF60.566237537684444
F0.0
sF90.54177689726413
F0.0
sF22.038587229492208
F0.0
sF94.12644433123309
F0.0
sF38.889983588195406
F0.0
sF52.12945503663333
F0.0
sF48.224780585502714
F0.0
sF25.539542180380113
F0.0
sF61.151941146046454
F0.0
sF76.02239437927346
F0.0
ssS'0'
p11
(dp12
F91.3572510681584
F0.0
sF79.719696122442
F0.0
sF87.59809891560803
F0.0
sF30.844390921435476
F0.0
sF19.464723671803384
F0.0
sF59.81188257953302
F0.0
sF4.334844148233774
F0.0
sF66.61258767478886
F0.0
sF58.21501196472821
F0.0
sF50.17458005599787
F0.0
sF58.937719787174046
F0.0
sF49.189194269558804
F0.0
sF90.11781970568347
F0.0
sF62.25474996541727
F0.0
sF80.43362586399856
F0.0
sF95.64179467196325
F0.0
sF75.61133758629083
F0.0
sF74.53614233439595
F0.0
sF47.77004338249818
F0.0
sF25.663944764876
F0.0
sF38.78222928229806
F0.0
sF85.36940852710971
F0.0
sF72.14772267067353
F0.0
sF66.21175640182473
F0.0
sF56.844750749092604
F0.0
sF56.75009679142086
F0.0
sF76.96713310136465
F0.0
sF42.37502452324609
F0.0
sF78.88811962576555
F0.0
sF55.90385231372524
F0.0
sF53.26420006934409
F0.0
sF19.55638406832024
F0.0
sF70.1131204334166
F0.0
sF52.8020153247986
F0.0
sF66.07529642788693
F0.0
sF57.252683736914136
F0.0
sF68.60381390121205
F0.0
sF56.18363412885777
F0.0
sF49.25571668575496
F0.0
sF65.304547190172
F0.0
sF50.51858373623379
F0.0
sF38.11432122798657
F0.0
sF63.84570176725944
F0.0
sF61.83343230261859
F0.0
sF70.41089718708193
F0.0
sF38.98052067218947
F0.0
sF57.0352046061502
F0.0
sF100.0
F0.0
sF43.113230562865695
F0.0
sF51.99830904991912
F0.0
sF72.4047984590757
F0.0
sF73.96697048591115
F0.0
sF70.10970123028187
F0.0
sF60.566237537684444
F0.0
sF90.54177689726413
F0.0
sF22.038587229492208
F0.0
sF94.12644433123309
F0.0
sF38.889983588195406
F0.0
sF52.12945503663333
F0.0
sF48.224780585502714
F0.0
sF25.539542180380113
F0.0
sF61.151941146046454
F0.0
sF76.02239437927346
F0.0
ssS'3'
p13
(dp14
F91.3572510681584
F0.0
sF79.719696122442
F0.0
sF87.59809891560803
F0.0
sF30.844390921435476
F0.0
sF19.464723671803384
F0.0
sF59.81188257953302
F0.0
sF4.334844148233774
F0.0
sF66.61258767478886
F0.0
sF58.21501196472821
F0.0
sF50.17458005599787
F0.0
sF58.937719787174046
F0.0
sF49.189194269558804
F0.0
sF90.11781970568347
F0.0
sF62.25474996541727
F0.0
sF80.43362586399856
F0.0
sF95.64179467196325
F0.0
sF75.61133758629083
F0.0
sF74.53614233439595
F0.0
sF47.77004338249818
F0.0
sF25.663944764876
F0.0
sF38.78222928229806
F0.0
sF85.36940852710971
F0.0
sF72.14772267067353
F162.07662533714299
sF66.21175640182473
F0.0
sF56.844750749092604
F0.0
sF56.75009679142086
F0.0
sF76.96713310136465
F0.0
sF42.37502452324609
F0.0
sF78.88811962576555
F0.0
sF55.90385231372524
F0.0
sF53.26420006934409
F0.0
sF19.55638406832024
F0.0
sF70.1131204334166
F0.0
sF52.8020153247986
F0.0
sF66.07529642788693
F0.0
sF57.252683736914136
F0.0
sF68.60381390121205
F0.0
sF56.18363412885777
F0.0
sF49.25571668575496
F0.0
sF65.304547190172
F0.0
sF50.51858373623379
F0.0
sF38.11432122798657
F0.0
sF63.84570176725944
F0.0
sF61.83343230261859
F0.0
sF70.41089718708193
F224.9272864358491
sF38.98052067218947
F0.0
sF57.0352046061502
F0.0
sF100.0
F0.0
sF43.113230562865695
F0.0
sF51.99830904991912
F0.0
sF72.4047984590757
F199.06249114750545
sF73.96697048591115
F0.0
sF70.10970123028187
F0.0
sF60.566237537684444
F0.0
sF90.54177689726413
F0.0
sF22.038587229492208
F0.0
sF94.12644433123309
F0.0
sF38.889983588195406
F0.0
sF52.12945503663333
F0.0
sF48.224780585502714
F0.0
sF25.539542180380113
F0.0
sF61.151941146046454
F0.0
sF76.02239437927346
F0.0
ssS'2'
p15
(dp16
F91.3572510681584
F0.0
sF79.719696122442
F0.0
sF87.59809891560803
F0.0
sF30.844390921435476
F0.0
sF19.464723671803384
F0.0
sF59.81188257953302
F0.0
sF4.334844148233774
F0.0
sF66.61258767478886
F0.0
sF58.21501196472821
F0.0
sF50.17458005599787
F0.0
sF58.937719787174046
F0.0
sF49.189194269558804
F0.0
sF90.11781970568347
F0.0
sF62.25474996541727
F0.0
sF80.43362586399856
F0.0
sF95.64179467196325
F0.0
sF75.61133758629083
F0.0
sF74.53614233439595
F0.0
sF47.77004338249818
F0.0
sF25.663944764876
F0.0
sF38.78222928229806
F0.0
sF85.36940852710971
F0.0
sF72.14772267067353
F0.0
sF66.21175640182473
F0.0
sF56.844750749092604
F0.0
sF56.75009679142086
F0.0
sF76.96713310136465
F0.0
sF42.37502452324609
F0.0
sF78.88811962576555
F0.0
sF55.90385231372524
F0.0
sF53.26420006934409
F0.0
sF19.55638406832024
F0.0
sF70.1131204334166
F0.0
sF52.8020153247986
F0.0
sF66.07529642788693
F0.0
sF57.252683736914136
F0.0
sF68.60381390121205
F0.0
sF56.18363412885777
F0.0
sF49.25571668575496
F0.0
sF65.304547190172
F0.0
sF50.51858373623379
F0.0
sF38.11432122798657
F0.0
sF63.84570176725944
F0.0
sF61.83343230261859
F0.0
sF70.41089718708193
F0.0
sF38.98052067218947
F0.0
sF57.0352046061502
F0.0
sF100.0
F0.0
sF43.113230562865695
F0.0
sF51.99830904991912
F0.0
sF72.4047984590757
F0.0
sF73.96697048591115
F896.6321319274122
sF70.10970123028187
F0.0
sF60.566237537684444
F0.0
sF90.54177689726413
F0.0
sF22.038587229492208
F0.0
sF94.12644433123309
F0.0
sF38.889983588195406
F0.0
sF52.12945503663333
F0.0
sF48.224780585502714
F0.0
sF25.539542180380113
F0.0
sF61.151941146046454
F0.0
sF76.02239437927346
F0.0
ssS'5'
p17
(dp18
F91.3572510681584
F0.0
sF79.719696122442
F0.0
sF87.59809891560803
F0.0
sF30.844390921435476
F0.0
sF19.464723671803384
F0.0
sF59.81188257953302
F0.0
sF4.334844148233774
F0.0
sF66.61258767478886
F0.0
sF58.21501196472821
F0.0
sF50.17458005599787
F0.0
sF58.937719787174046
F0.0
sF49.189194269558804
F0.0
sF90.11781970568347
F0.0
sF62.25474996541727
F0.0
sF80.43362586399856
F0.0
sF95.64179467196325
F0.0
sF75.61133758629083
F0.0
sF74.53614233439595
F0.0
sF47.77004338249818
F0.0
sF25.663944764876
F0.0
sF38.78222928229806
F0.0
sF85.36940852710971
F0.0
sF72.14772267067353
F0.0
sF66.21175640182473
F0.0
sF56.844750749092604
F0.0
sF56.75009679142086
F0.0
sF76.96713310136465
F0.0
sF42.37502452324609
F0.0
sF78.88811962576555
F0.0
sF55.90385231372524
F0.0
sF53.26420006934409
F0.0
sF19.55638406832024
F0.0
sF70.1131204334166
F0.0
sF52.8020153247986
F0.0
sF66.07529642788693
F0.0
sF57.252683736914136
F0.0
sF68.60381390121205
F0.0
sF56.18363412885777
F0.0
sF49.25571668575496
F0.0
sF65.304547190172
F0.0
sF50.51858373623379
F0.0
sF38.11432122798657
F0.0
sF63.84570176725944
F0.0
sF61.83343230261859
F0.0
sF70.41089718708193
F0.0
sF38.98052067218947
F0.0
sF57.0352046061502
F0.0
sF100.0
F0.0
sF43.113230562865695
F0.0
sF51.99830904991912
F0.0
sF72.4047984590757
F0.0
sF73.96697048591115
F0.0
sF70.10970123028187
F0.0
sF60.566237537684444
F0.0
sF90.54177689726413
F0.0
sF22.038587229492208
F0.0
sF94.12644433123309
F0.0
sF38.889983588195406
F0.0
sF52.12945503663333
F13.372062987909421
sF48.224780585502714
F0.0
sF25.539542180380113
F0.0
sF61.151941146046454
F0.0
sF76.02239437927346
F0.0
ssS'4'
p19
(dp20
F91.3572510681584
F0.0
sF79.719696122442
F0.0
sF87.59809891560803
F0.0
sF30.844390921435476
F0.0
sF19.464723671803384
F0.0
sF59.81188257953302
F0.0
sF4.334844148233774
F0.0
sF66.61258767478886
F0.0
sF58.21501196472821
F0.0
sF50.17458005599787
F0.0
sF58.937719787174046
F0.0
sF49.189194269558804
F0.0
sF90.11781970568347
F0.0
sF62.25474996541727
F0.0
sF80.43362586399856
F0.0
sF95.64179467196325
F0.0
sF75.61133758629083
F0.0
sF74.53614233439595
F0.0
sF47.77004338249818
F0.0
sF25.663944764876
F0.0
sF38.78222928229806
F0.0
sF85.36940852710971
F0.0
sF72.14772267067353
F0.0
sF66.21175640182473
F0.0
sF56.844750749092604
F0.0
sF56.75009679142086
F0.0
sF76.96713310136465
F0.0
sF42.37502452324609
F0.0
sF78.88811962576555
F0.0
sF55.90385231372524
F13.372062987909421
sF53.26420006934409
F4.02021327874547
sF19.55638406832024
F0.0
sF70.1131204334166
F0.0
sF52.8020153247986
F2.382769453310395
sF66.07529642788693
F0.0
sF57.252683736914136
F0.0
sF68.60381390121205
F0.0
sF56.18363412885777
F0.0
sF49.25571668575496
F0.0
sF65.304547190172
F0.0
sF50.51858373623379
F0.0
sF38.11432122798657
F0.0
sF63.84570176725944
F0.0
sF61.83343230261859
F0.0
sF70.41089718708193
F0.0
sF38.98052067218947
F0.0
sF57.0352046061502
F0.0
sF100.0
F0.0
sF43.113230562865695
F0.0
sF51.99830904991912
F0.0
sF72.4047984590757
F0.0
sF73.96697048591115
F0.0
sF70.10970123028187
F0.0
sF60.566237537684444
F0.0
sF90.54177689726413
F0.0
sF22.038587229492208
F0.0
sF94.12644433123309
F0.0
sF38.889983588195406
F0.0
sF52.12945503663333
F0.0
sF48.224780585502714
F0.0
sF25.539542180380113
F0.0
sF61.151941146046454
F0.0
sF76.02239437927346
F0.0
ssS'7'
p21
(dp22
F91.3572510681584
F0.0
sF79.719696122442
F0.0
sF87.59809891560803
F0.0
sF30.844390921435476
F0.0
sF19.464723671803384
F0.0
sF59.81188257953302
F0.0
sF4.334844148233774
F0.0
sF66.61258767478886
F0.0
sF58.21501196472821
F0.0
sF50.17458005599787
F0.0
sF58.937719787174046
F0.0
sF49.189194269558804
F0.0
sF90.11781970568347
F0.0
sF62.25474996541727
F0.0
sF80.43362586399856
F0.0
sF95.64179467196325
F0.0
sF75.61133758629083
F0.0
sF74.53614233439595
F0.0
sF47.77004338249818
F0.0
sF25.663944764876
F0.0
sF38.78222928229806
F0.0
sF85.36940852710971
F0.0
sF72.14772267067353
F252.9258708784913
sF66.21175640182473
F0.0
sF56.844750749092604
F0.0
sF56.75009679142086
F0.0
sF76.96713310136465
F0.0
sF42.37502452324609
F0.0
sF78.88811962576555
F0.0
sF55.90385231372524
F0.0
sF53.26420006934409
F0.0
sF19.55638406832024
F0.0
sF70.1131204334166
F0.0
sF52.8020153247986
F0.0
sF66.07529642788693
F0.0
sF57.252683736914136
F0.0
sF68.60381390121205
F0.0
sF56.18363412885777
F0.0
sF49.25571668575496
F0.0
sF65.304547190172
F0.0
sF50.51858373623379
F0.0
sF38.11432122798657
F0.0
sF63.84570176725944
F0.0
sF61.83343230261859
F0.0
sF70.41089718708193
F251.24691068971777
sF38.98052067218947
F0.0
sF57.0352046061502
F0.0
sF100.0
F0.0
sF43.113230562865695
F0.0
sF51.99830904991912
F0.0
sF72.4047984590757
F185.40599680986452
sF73.96697048591115
F0.0
sF70.10970123028187
F0.0
sF60.566237537684444
F0.0
sF90.54177689726413
F0.0
sF22.038587229492208
F0.0
sF94.12644433123309
F0.0
sF38.889983588195406
F0.0
sF52.12945503663333
F0.0
sF48.224780585502714
F0.0
sF25.539542180380113
F0.0
sF61.151941146046454
F0.0
sF76.02239437927346
F0.0
ssS'6'
p23
(dp24
F91.3572510681584
F0.0
sF79.719696122442
F0.0
sF87.59809891560803
F0.0
sF30.844390921435476
F0.0
sF19.464723671803384
F0.0
sF59.81188257953302
F0.0
sF4.334844148233774
F0.0
sF66.61258767478886
F0.0
sF58.21501196472821
F0.0
sF50.17458005599787
F0.0
sF58.937719787174046
F0.0
sF49.189194269558804
F0.0
sF90.11781970568347
F0.0
sF62.25474996541727
F0.0
sF80.43362586399856
F0.0
sF95.64179467196325
F0.0
sF75.61133758629083
F0.0
sF74.53614233439595
F0.0
sF47.77004338249818
F0.0
sF25.663944764876
F0.0
sF38.78222928229806
F0.0
sF85.36940852710971
F0.0
sF72.14772267067353
F0.0
sF66.21175640182473
F0.0
sF56.844750749092604
F0.0
sF56.75009679142086
F0.0
sF76.96713310136465
F0.0
sF42.37502452324609
F0.0
sF78.88811962576555
F0.0
sF55.90385231372524
F0.0
sF53.26420006934409
F0.0
sF19.55638406832024
F0.0
sF70.1131204334166
F0.0
sF52.8020153247986
F0.0
sF66.07529642788693
F0.0
sF57.252683736914136
F0.0
sF68.60381390121205
F0.0
sF56.18363412885777
F0.0
sF49.25571668575496
F0.0
sF65.304547190172
F0.0
sF50.51858373623379
F0.0
sF38.11432122798657
F0.0
sF63.84570176725944
F0.0
sF61.83343230261859
F0.0
sF70.41089718708193
F0.0
sF38.98052067218947
F0.0
sF57.0352046061502
F0.0
sF100.0
F0.0
sF43.113230562865695
F0.0
sF51.99830904991912
F0.0
sF72.4047984590757
F0.0
sF73.96697048591115
F0.0
sF70.10970123028187
F0.0
sF60.566237537684444
F0.0
sF90.54177689726413
F0.0
sF22.038587229492208
F0.0
sF94.12644433123309
F0.0
sF38.889983588195406
F0.0
sF52.12945503663333
F0.0
sF48.224780585502714
F0.0
sF25.539542180380113
F0.0
sF61.151941146046454
F0.0
sF76.02239437927346
F0.0
ssS'9'
p25
(dp26
F91.3572510681584
F0.0
sF79.719696122442
F0.0
sF87.59809891560803
F0.0
sF30.844390921435476
F0.0
sF19.464723671803384
F0.0
sF59.81188257953302
F0.0
sF4.334844148233774
F0.0
sF66.61258767478886
F0.0
sF58.21501196472821
F0.0
sF50.17458005599787
F0.0
sF58.937719787174046
F0.0
sF49.189194269558804
F0.0
sF90.11781970568347
F0.0
sF62.25474996541727
F0.0
sF80.43362586399856
F0.0
sF95.64179467196325
F0.0
sF75.61133758629083
F0.0
sF74.53614233439595
F0.0
sF47.77004338249818
F0.0
sF25.663944764876
F0.0
sF38.78222928229806
F0.0
sF85.36940852710971
F0.0
sF72.14772267067353
F183.4042660222247
sF66.21175640182473
F0.0
sF56.844750749092604
F0.0
sF56.75009679142086
F0.0
sF76.96713310136465
F0.0
sF42.37502452324609
F0.0
sF78.88811962576555
F0.0
sF55.90385231372524
F0.0
sF53.26420006934409
F0.0
sF19.55638406832024
F0.0
sF70.1131204334166
F0.0
sF52.8020153247986
F0.0
sF66.07529642788693
F0.0
sF57.252683736914136
F0.0
sF68.60381390121205
F0.0
sF56.18363412885777
F0.0
sF49.25571668575496
F0.0
sF65.304547190172
F0.0
sF50.51858373623379
F0.0
sF38.11432122798657
F0.0
sF63.84570176725944
F0.0
sF61.83343230261859
F0.0
sF70.41089718708193
F142.2813680778112
sF38.98052067218947
F0.0
sF57.0352046061502
F0.0
sF100.0
F0.0
sF43.113230562865695
F0.0
sF51.99830904991912
F0.0
sF72.4047984590757
F72.5862881936881
sF73.96697048591115
F896.6321319274122
sF70.10970123028187
F0.0
sF60.566237537684444
F0.0
sF90.54177689726413
F0.0
sF22.038587229492208
F0.0
sF94.12644433123309
F0.0
sF38.889983588195406
F0.0
sF52.12945503663333
F0.0
sF48.224780585502714
F0.0
sF25.539542180380113
F0.0
sF61.151941146046454
F0.0
sF76.02239437927346
F0.0
ssS'8'
p27
(dp28
F91.3572510681584
F0.0
sF79.719696122442
F0.0
sF87.59809891560803
F0.0
sF30.844390921435476
F0.0
sF19.464723671803384
F0.0
sF59.81188257953302
F0.0
sF4.334844148233774
F0.0
sF66.61258767478886
F0.0
sF58.21501196472821
F0.0
sF50.17458005599787
F0.0
sF58.937719787174046
F0.0
sF49.189194269558804
F0.0
sF90.11781970568347
F0.0
sF62.25474996541727
F0.0
sF80.43362586399856
F0.0
sF95.64179467196325
F0.0
sF75.61133758629083
F0.0
sF74.53614233439595
F0.0
sF47.77004338249818
F0.0
sF25.663944764876
F0.0
sF38.78222928229806
F0.0
sF85.36940852710971
F0.0
sF72.14772267067353
F378.85679156247744
sF66.21175640182473
F0.0
sF56.844750749092604
F0.0
sF56.75009679142086
F0.0
sF76.96713310136465
F0.0
sF42.37502452324609
F0.0
sF78.88811962576555
F0.0
sF55.90385231372524
F0.0
sF53.26420006934409
F0.0
sF19.55638406832024
F0.0
sF70.1131204334166
F0.0
sF52.8020153247986
F0.0
sF66.07529642788693
F0.0
sF57.252683736914136
F0.0
sF68.60381390121205
F0.0
sF56.18363412885777
F0.0
sF49.25571668575496
F0.0
sF65.304547190172
F0.0
sF50.51858373623379
F0.0
sF38.11432122798657
F0.0
sF63.84570176725944
F0.0
sF61.83343230261859
F0.0
sF70.41089718708193
F259.33170549095
sF38.98052067218947
F0.0
sF57.0352046061502
F0.0
sF100.0
F0.0
sF43.113230562865695
F0.0
sF51.99830904991912
F0.0
sF72.4047984590757
F407.98085109932725
sF73.96697048591115
F0.0
sF70.10970123028187
F0.0
sF60.566237537684444
F0.0
sF90.54177689726413
F0.0
sF22.038587229492208
F0.0
sF94.12644433123309
F0.0
sF38.889983588195406
F0.0
sF52.12945503663333
F0.0
sF48.224780585502714
F0.0
sF25.539542180380113
F0.0
sF61.151941146046454
F0.0
sF76.02239437927346
F0.0
ss.