(dp0
S'1'
p1
(dp2
F0.0
F0.0
sF1.0
F1.0
sF2.0
F9.833333333333332
sF3.0
F0.0
sF4.0
F2.0
sF5.0
F0.0
sF6.0
F13.0
sF7.0
F29.583333333333332
sF8.0
F35.66666666666667
sF9.0
F0.0
sF10.0
F0.0
ssS'0'
p3
(dp4
F0.0
F0.0
sF1.0
F18.833333333333332
sF2.0
F52.666666666666664
sF3.0
F93.91666666666667
sF4.0
F0.0
sF5.0
F0.0
sF6.0
F13.0
sF7.0
F68.58333333333333
sF8.0
F82.0
sF9.0
F0.0
sF10.0
F0.0
ssS'3'
p5
(dp6
F0.0
F0.0
sF1.0
F18.833333333333332
sF2.0
F15.583333333333334
sF3.0
F0.0
sF4.0
F4.0
sF5.0
F0.0
sF6.0
F0.0
sF7.0
F0.0
sF8.0
F13.666666666666666
sF9.0
F0.0
sF10.0
F0.0
ssS'2'
p7
(dp8
F0.0
F0.0
sF1.0
F3.5
sF2.0
F37.083333333333336
sF3.0
F0.0
sF4.0
F3.6666666666666665
sF5.0
F0.0
sF6.0
F0.0
sF7.0
F18.0
sF8.0
F2.0
sF9.0
F0.0
sF10.0
F0.0
ssS'5'
p9
(dp10
F0.0
F0.0
sF1.0
F1.0
sF2.0
F8.0
sF3.0
F12.333333333333334
sF4.0
F0.6666666666666666
sF5.0
F0.0
sF6.0
F0.0
sF7.0
F4.0
sF8.0
F13.333333333333334
sF9.0
F0.0
sF10.0
F0.0
ssS'4'
p11
(dp12
F0.0
F0.0
sF1.0
F3.5
sF2.0
F1.0
sF3.0
F15.5
sF4.0
F0.0
sF5.0
F0.0
sF6.0
F0.0
sF7.0
F15.5
sF8.0
F8.0
sF9.0
F0.0
sF10.0
F0.0
ssS'7'
p13
(dp14
F0.0
F0.0
sF1.0
F6.333333333333333
sF2.0
F4.833333333333333
sF3.0
F7.333333333333333
sF4.0
F0.0
sF5.0
F0.0
sF6.0
F0.0
sF7.0
F21.0
sF8.0
F2.0
sF9.0
F0.0
sF10.0
F0.0
ssS'6'
p15
(dp16
F0.0
F0.0
sF1.0
F3.0
sF2.0
F0.0
sF3.0
F44.416666666666664
sF4.0
F2.0
sF5.0
F0.0
sF6.0
F0.0
sF7.0
F0.0
sF8.0
F20.0
sF9.0
F0.0
sF10.0
F0.0
ssS'9'
p17
(dp18
F0.0
F0.0
sF1.0
F1.25
sF2.0
F2.75
sF3.0
F49.5
sF4.0
F5.666666666666666
sF5.0
F0.0
sF6.0
F0.0
sF7.0
F0.0
sF8.0
F10.0
sF9.0
F0.0
sF10.0
F0.0
ssS'8'
p19
(dp20
F0.0
F0.0
sF1.0
F7.833333333333333
sF2.0
F6.333333333333334
sF3.0
F9.083333333333332
sF4.0
F0.6666666666666666
sF5.0
F0.0
sF6.0
F0.0
sF7.0
F5.083333333333333
sF8.0
F32.66666666666667
sF9.0
F0.0
sF10.0
F0.0
ss.