(dp0
S'10'
p1
(dp2
F0.9297731520785214
F0.0
sF89.74988578348281
F0.0
sF31.86742981088178
F0.0
sF24.50998124617542
F0.0
sF14.30357695973741
F0.0
sF31.87636582309487
F0.0
sF97.1010838104225
F0.0
sF38.96489000188186
F0.0
sF34.28669408140032
F0.0
sF71.9580970562756
F0.0
sF15.991500051513587
F0.0
sF55.417004340588605
F0.0
sF2.2705848826676203
F0.0
sF1.3473452638627392
F0.0
sF38.74272649845046
F0.0
sF31.580681423839415
F0.0
sF20.025396934264016
F0.0
sF90.8116749344082
F0.0
sF61.288346679286164
F0.0
sF37.51429891392868
F0.0
sF44.24498583884778
F0.0
sF92.21183319084625
F0.0
sF34.72546942366968
F0.0
sF94.94368340788559
F0.0
sF34.52922469691261
F0.0
sF5.366649383520722
F0.0
sF1.3745340718010575
F0.0
sF49.392847258972786
F0.0
sF20.883061535855823
F0.0
sF87.32479046897582
F0.0
sF100.0
F0.0
sF22.824483145790715
F0.0
sF95.81154941150723
F0.0
sF70.00204964386384
F0.0
sF91.51014453612402
F0.0
sF36.14836379657414
F0.0
sF92.37737797143672
F0.0
sF63.13325303729901
F0.0
sF0.4681866677584967
F0.0
sF90.50501037764255
F0.0
sF69.93911541103392
F0.0
sF52.281264284333794
F0.0
sF68.30774508741433
F0.0
sF62.16813153516843
F0.0
sF98.00702895390442
F0.0
sF11.15629463066069
F0.0
sF88.43224950613805
F0.0
sF26.802228596129883
F0.0
sF37.28958446227575
F0.0
sF88.87050514130867
F0.0
sF74.37658041006577
F0.0
sF58.840410143866016
F0.0
sF87.81497098706814
F0.0
sF97.37045208283706
F0.0
sF69.41372625960014
F0.0
sF68.18120522345966
F0.0
sF88.37897487045896
F0.0
ssS'13'
p3
(dp4
F0.9297731520785214
F0.0
sF89.74988578348281
F0.0
sF31.86742981088178
F1433.917895523396
sF24.50998124617542
F0.0
sF14.30357695973741
F0.0
sF31.87636582309487
F0.0
sF97.1010838104225
F0.0
sF38.96489000188186
F0.0
sF34.28669408140032
F0.0
sF71.9580970562756
F0.0
sF15.991500051513587
F0.0
sF55.417004340588605
F0.0
sF2.2705848826676203
F0.0
sF1.3473452638627392
F0.0
sF38.74272649845046
F0.0
sF31.580681423839415
F0.0
sF20.025396934264016
F0.0
sF90.8116749344082
F0.0
sF61.288346679286164
F0.0
sF37.51429891392868
F0.0
sF44.24498583884778
F0.0
sF92.21183319084625
F0.0
sF34.72546942366968
F0.0
sF94.94368340788559
F0.0
sF34.52922469691261
F0.0
sF5.366649383520722
F0.0
sF1.3745340718010575
F0.0
sF49.392847258972786
F0.0
sF20.883061535855823
F0.0
sF87.32479046897582
F0.0
sF100.0
F0.0
sF22.824483145790715
F0.0
sF95.81154941150723
F0.0
sF70.00204964386384
F0.0
sF91.51014453612402
F63.39300074473925
sF36.14836379657414
F0.0
sF92.37737797143672
F0.0
sF63.13325303729901
F0.0
sF0.4681866677584967
F0.0
sF90.50501037764255
F0.0
sF69.93911541103392
F0.0
sF52.281264284333794
F0.0
sF68.30774508741433
F0.0
sF62.16813153516843
F0.0
sF98.00702895390442
F0.0
sF11.15629463066069
F0.0
sF88.43224950613805
F0.0
sF26.802228596129883
F0.0
sF37.28958446227575
F0.0
sF88.87050514130867
F0.0
sF74.37658041006577
F0.0
sF58.840410143866016
F0.0
sF87.81497098706814
F0.0
sF97.37045208283706
F0.0
sF69.41372625960014
F0.0
sF68.18120522345966
F0.0
sF88.37897487045896
F0.0
ssS'12'
p5
(dp6
F0.9297731520785214
F0.0
sF89.74988578348281
F0.0
sF31.86742981088178
F0.0
sF24.50998124617542
F0.0
sF14.30357695973741
F0.0
sF31.87636582309487
F0.0
sF97.1010838104225
F0.0
sF38.96489000188186
F0.0
sF34.28669408140032
F0.0
sF71.9580970562756
F0.0
sF15.991500051513587
F0.0
sF55.417004340588605
F0.0
sF2.2705848826676203
F0.0
sF1.3473452638627392
F0.0
sF38.74272649845046
F0.0
sF31.580681423839415
F0.0
sF20.025396934264016
F0.0
sF90.8116749344082
F0.0
sF61.288346679286164
F0.0
sF37.51429891392868
F0.0
sF44.24498583884778
F0.0
sF92.21183319084625
F0.0
sF34.72546942366968
F0.0
sF94.94368340788559
F0.0
sF34.52922469691261
F0.0
sF5.366649383520722
F0.0
sF1.3745340718010575
F0.0
sF49.392847258972786
F0.0
sF20.883061535855823
F0.0
sF87.32479046897582
F0.0
sF100.0
F0.0
sF22.824483145790715
F0.0
sF95.81154941150723
F0.0
sF70.00204964386384
F0.0
sF91.51014453612402
F0.0
sF36.14836379657414
F0.0
sF92.37737797143672
F0.0
sF63.13325303729901
F0.0
sF0.4681866677584967
F0.0
sF90.50501037764255
F0.0
sF69.93911541103392
F0.0
sF52.281264284333794
F0.0
sF68.30774508741433
F0.0
sF62.16813153516843
F0.0
sF98.00702895390442
F0.0
sF11.15629463066069
F0.0
sF88.43224950613805
F0.0
sF26.802228596129883
F0.0
sF37.28958446227575
F0.0
sF88.87050514130867
F0.0
sF74.37658041006577
F0.0
sF58.840410143866016
F0.0
sF87.81497098706814
F0.0
sF97.37045208283706
F0.0
sF69.41372625960014
F0.0
sF68.18120522345966
F0.0
sF88.37897487045896
F0.0
ssS'1'
p7
(dp8
F0.9297731520785214
F0.0
sF89.74988578348281
F0.0
sF31.86742981088178
F0.0
sF24.50998124617542
F0.0
sF14.30357695973741
F0.0
sF31.87636582309487
F0.0
sF97.1010838104225
F0.0
sF38.96489000188186
F0.0
sF34.28669408140032
F0.0
sF71.9580970562756
F0.0
sF15.991500051513587
F0.0
sF55.417004340588605
F0.0
sF2.2705848826676203
F0.0
sF1.3473452638627392
F0.0
sF38.74272649845046
F0.0
sF31.580681423839415
F0.0
sF20.025396934264016
F0.0
sF90.8116749344082
F0.0
sF61.288346679286164
F1648.8229635526527
sF37.51429891392868
F0.0
sF44.24498583884778
F0.0
sF92.21183319084625
F0.0
sF34.72546942366968
F0.0
sF94.94368340788559
F0.0
sF34.52922469691261
F0.0
sF5.366649383520722
F0.0
sF1.3745340718010575
F0.0
sF49.392847258972786
F110.5528324848287
sF20.883061535855823
F0.0
sF87.32479046897582
F0.0
sF100.0
F0.0
sF22.824483145790715
F0.0
sF95.81154941150723
F0.0
sF70.00204964386384
F0.0
sF91.51014453612402
F0.0
sF36.14836379657414
F0.0
sF92.37737797143672
F0.0
sF63.13325303729901
F0.0
sF0.4681866677584967
F0.0
sF90.50501037764255
F0.0
sF69.93911541103392
F0.0
sF52.281264284333794
F0.0
sF68.30774508741433
F0.0
sF62.16813153516843
F19.366703291600594
sF98.00702895390442
F0.0
sF11.15629463066069
F0.0
sF88.43224950613805
F0.0
sF26.802228596129883
F0.0
sF37.28958446227575
F0.0
sF88.87050514130867
F0.0
sF74.37658041006577
F0.0
sF58.840410143866016
F0.0
sF87.81497098706814
F0.0
sF97.37045208283706
F0.0
sF69.41372625960014
F0.0
sF68.18120522345966
F0.0
sF88.37897487045896
F0.0
ssS'0'
p9
(dp10
F0.9297731520785214
F0.0
sF89.74988578348281
F37.52178089517109
sF31.86742981088178
F0.0
sF24.50998124617542
F1433.917895523396
sF14.30357695973741
F0.0
sF31.87636582309487
F0.0
sF97.1010838104225
F0.0
sF38.96489000188186
F106.0890653194444
sF34.28669408140032
F0.0
sF71.9580970562756
F0.0
sF15.991500051513587
F0.0
sF55.417004340588605
F0.0
sF2.2705848826676203
F0.0
sF1.3473452638627392
F0.0
sF38.74272649845046
F110.5528324848287
sF31.580681423839415
F0.0
sF20.025396934264016
F0.0
sF90.8116749344082
F63.39300074473925
sF61.288346679286164
F0.0
sF37.51429891392868
F0.0
sF44.24498583884778
F0.0
sF92.21183319084625
F0.0
sF34.72546942366968
F0.0
sF94.94368340788559
F0.0
sF34.52922469691261
F0.0
sF5.366649383520722
F0.0
sF1.3745340718010575
F0.0
sF49.392847258972786
F0.0
sF20.883061535855823
F0.0
sF87.32479046897582
F54.67527786319891
sF100.0
F0.0
sF22.824483145790715
F0.0
sF95.81154941150723
F0.0
sF70.00204964386384
F0.0
sF91.51014453612402
F0.0
sF36.14836379657414
F0.0
sF92.37737797143672
F0.0
sF63.13325303729901
F0.0
sF0.4681866677584967
F0.0
sF90.50501037764255
F0.0
sF69.93911541103392
F0.0
sF52.281264284333794
F0.0
sF68.30774508741433
F0.0
sF62.16813153516843
F0.0
sF98.00702895390442
F0.0
sF11.15629463066069
F0.0
sF88.43224950613805
F0.0
sF26.802228596129883
F0.0
sF37.28958446227575
F0.0
sF88.87050514130867
F0.0
sF74.37658041006577
F0.0
sF58.840410143866016
F0.0
sF87.81497098706814
F0.0
sF97.37045208283706
F0.0
sF69.41372625960014
F0.0
sF68.18120522345966
F0.0
sF88.37897487045896
F0.0
ssS'3'
p11
(dp12
F0.9297731520785214
F0.0
sF89.74988578348281
F0.0
sF31.86742981088178
F0.0
sF24.50998124617542
F1433.917895523396
sF14.30357695973741
F0.0
sF31.87636582309487
F0.0
sF97.1010838104225
F0.0
sF38.96489000188186
F0.0
sF34.28669408140032
F0.0
sF71.9580970562756
F0.0
sF15.991500051513587
F0.0
sF55.417004340588605
F0.0
sF2.2705848826676203
F0.0
sF1.3473452638627392
F0.0
sF38.74272649845046
F110.5528324848287
sF31.580681423839415
F0.0
sF20.025396934264016
F0.0
sF90.8116749344082
F63.39300074473925
sF61.288346679286164
F1648.8229635526527
sF37.51429891392868
F0.0
sF44.24498583884778
F0.0
sF92.21183319084625
F0.0
sF34.72546942366968
F0.0
sF94.94368340788559
F0.0
sF34.52922469691261
F0.0
sF5.366649383520722
F0.0
sF1.3745340718010575
F0.0
sF49.392847258972786
F0.0
sF20.883061535855823
F0.0
sF87.32479046897582
F0.0
sF100.0
F0.0
sF22.824483145790715
F0.0
sF95.81154941150723
F0.0
sF70.00204964386384
F0.0
sF91.51014453612402
F0.0
sF36.14836379657414
F0.0
sF92.37737797143672
F0.0
sF63.13325303729901
F0.0
sF0.4681866677584967
F0.0
sF90.50501037764255
F0.0
sF69.93911541103392
F0.0
sF52.281264284333794
F0.0
sF68.30774508741433
F0.0
sF62.16813153516843
F0.0
sF98.00702895390442
F0.0
sF11.15629463066069
F0.0
sF88.43224950613805
F37.52178089517109
sF26.802228596129883
F0.0
sF37.28958446227575
F0.0
sF88.87050514130867
F0.0
sF74.37658041006577
F0.0
sF58.840410143866016
F0.0
sF87.81497098706814
F0.0
sF97.37045208283706
F0.0
sF69.41372625960014
F0.0
sF68.18120522345966
F0.0
sF88.37897487045896
F0.0
ssS'2'
p13
(dp14
F0.9297731520785214
F0.0
sF89.74988578348281
F37.52178089517109
sF31.86742981088178
F0.0
sF24.50998124617542
F0.0
sF14.30357695973741
F0.0
sF31.87636582309487
F0.0
sF97.1010838104225
F0.0
sF38.96489000188186
F0.0
sF34.28669408140032
F0.0
sF71.9580970562756
F54.67527786319891
sF15.991500051513587
F0.0
sF55.417004340588605
F0.0
sF2.2705848826676203
F0.0
sF1.3473452638627392
F0.0
sF38.74272649845046
F0.0
sF31.580681423839415
F0.0
sF20.025396934264016
F0.0
sF90.8116749344082
F0.0
sF61.288346679286164
F0.0
sF37.51429891392868
F0.0
sF44.24498583884778
F0.0
sF92.21183319084625
F0.0
sF34.72546942366968
F0.0
sF94.94368340788559
F0.0
sF34.52922469691261
F0.0
sF5.366649383520722
F0.0
sF1.3745340718010575
F0.0
sF49.392847258972786
F0.0
sF20.883061535855823
F0.0
sF87.32479046897582
F54.67527786319891
sF100.0
F0.0
sF22.824483145790715
F0.0
sF95.81154941150723
F0.0
sF70.00204964386384
F54.67527786319891
sF91.51014453612402
F63.39300074473925
sF36.14836379657414
F0.0
sF92.37737797143672
F0.0
sF63.13325303729901
F54.67527786319891
sF0.4681866677584967
F0.0
sF90.50501037764255
F0.0
sF69.93911541103392
F54.67527786319891
sF52.281264284333794
F0.0
sF68.30774508741433
F54.67527786319891
sF62.16813153516843
F1594.1476856894537
sF98.00702895390442
F0.0
sF11.15629463066069
F0.0
sF88.43224950613805
F37.52178089517109
sF26.802228596129883
F0.0
sF37.28958446227575
F0.0
sF88.87050514130867
F37.52178089517109
sF74.37658041006577
F54.67527786319891
sF58.840410143866016
F0.0
sF87.81497098706814
F0.0
sF97.37045208283706
F0.0
sF69.41372625960014
F54.67527786319891
sF68.18120522345966
F54.67527786319891
sF88.37897487045896
F0.0
ssS'5'
p15
(dp16
F0.9297731520785214
F0.0
sF89.74988578348281
F0.0
sF31.86742981088178
F0.0
sF24.50998124617542
F0.0
sF14.30357695973741
F0.0
sF31.87636582309487
F0.0
sF97.1010838104225
F0.0
sF38.96489000188186
F0.0
sF34.28669408140032
F0.0
sF71.9580970562756
F0.0
sF15.991500051513587
F0.0
sF55.417004340588605
F0.0
sF2.2705848826676203
F0.0
sF1.3473452638627392
F0.0
sF38.74272649845046
F0.0
sF31.580681423839415
F0.0
sF20.025396934264016
F0.0
sF90.8116749344082
F63.39300074473925
sF61.288346679286164
F0.0
sF37.51429891392868
F0.0
sF44.24498583884778
F0.0
sF92.21183319084625
F0.0
sF34.72546942366968
F0.0
sF94.94368340788559
F0.0
sF34.52922469691261
F0.0
sF5.366649383520722
F0.0
sF1.3745340718010575
F0.0
sF49.392847258972786
F0.0
sF20.883061535855823
F0.0
sF87.32479046897582
F0.0
sF100.0
F0.0
sF22.824483145790715
F0.0
sF95.81154941150723
F0.0
sF70.00204964386384
F0.0
sF91.51014453612402
F0.0
sF36.14836379657414
F0.0
sF92.37737797143672
F0.0
sF63.13325303729901
F0.0
sF0.4681866677584967
F0.0
sF90.50501037764255
F0.0
sF69.93911541103392
F0.0
sF52.281264284333794
F0.0
sF68.30774508741433
F0.0
sF62.16813153516843
F0.0
sF98.00702895390442
F0.0
sF11.15629463066069
F0.0
sF88.43224950613805
F0.0
sF26.802228596129883
F0.0
sF37.28958446227575
F0.0
sF88.87050514130867
F0.0
sF74.37658041006577
F0.0
sF58.840410143866016
F0.0
sF87.81497098706814
F0.0
sF97.37045208283706
F0.0
sF69.41372625960014
F0.0
sF68.18120522345966
F0.0
sF88.37897487045896
F0.0
ssS'4'
p17
(dp18
F0.9297731520785214
F0.0
sF89.74988578348281
F0.0
sF31.86742981088178
F0.0
sF24.50998124617542
F0.0
sF14.30357695973741
F0.0
sF31.87636582309487
F0.0
sF97.1010838104225
F0.0
sF38.96489000188186
F0.0
sF34.28669408140032
F0.0
sF71.9580970562756
F0.0
sF15.991500051513587
F0.0
sF55.417004340588605
F0.0
sF2.2705848826676203
F0.0
sF1.3473452638627392
F0.0
sF38.74272649845046
F0.0
sF31.580681423839415
F0.0
sF20.025396934264016
F0.0
sF90.8116749344082
F0.0
sF61.288346679286164
F0.0
sF37.51429891392868
F0.0
sF44.24498583884778
F0.0
sF92.21183319084625
F0.0
sF34.72546942366968
F0.0
sF94.94368340788559
F0.0
sF34.52922469691261
F0.0
sF5.366649383520722
F0.0
sF1.3745340718010575
F0.0
sF49.392847258972786
F0.0
sF20.883061535855823
F0.0
sF87.32479046897582
F0.0
sF100.0
F0.0
sF22.824483145790715
F0.0
sF95.81154941150723
F0.0
sF70.00204964386384
F0.0
sF91.51014453612402
F0.0
sF36.14836379657414
F0.0
sF92.37737797143672
F0.0
sF63.13325303729901
F0.0
sF0.4681866677584967
F0.0
sF90.50501037764255
F0.0
sF69.93911541103392
F0.0
sF52.281264284333794
F0.0
sF68.30774508741433
F0.0
sF62.16813153516843
F0.0
sF98.00702895390442
F0.0
sF11.15629463066069
F0.0
sF88.43224950613805
F0.0
sF26.802228596129883
F0.0
sF37.28958446227575
F0.0
sF88.87050514130867
F0.0
sF74.37658041006577
F0.0
sF58.840410143866016
F0.0
sF87.81497098706814
F0.0
sF97.37045208283706
F0.0
sF69.41372625960014
F0.0
sF68.18120522345966
F0.0
sF88.37897487045896
F0.0
ssS'7'
p19
(dp20
F0.9297731520785214
F0.0
sF89.74988578348281
F0.0
sF31.86742981088178
F0.0
sF24.50998124617542
F0.0
sF14.30357695973741
F0.0
sF31.87636582309487
F0.0
sF97.1010838104225
F0.0
sF38.96489000188186
F0.0
sF34.28669408140032
F0.0
sF71.9580970562756
F0.0
sF15.991500051513587
F0.0
sF55.417004340588605
F0.0
sF2.2705848826676203
F0.0
sF1.3473452638627392
F0.0
sF38.74272649845046
F0.0
sF31.580681423839415
F0.0
sF20.025396934264016
F0.0
sF90.8116749344082
F0.0
sF61.288346679286164
F0.0
sF37.51429891392868
F0.0
sF44.24498583884778
F0.0
sF92.21183319084625
F0.0
sF34.72546942366968
F0.0
sF94.94368340788559
F0.0
sF34.52922469691261
F0.0
sF5.366649383520722
F0.0
sF1.3745340718010575
F0.0
sF49.392847258972786
F0.0
sF20.883061535855823
F0.0
sF87.32479046897582
F0.0
sF100.0
F0.0
sF22.824483145790715
F0.0
sF95.81154941150723
F0.0
sF70.00204964386384
F0.0
sF91.51014453612402
F0.0
sF36.14836379657414
F0.0
sF92.37737797143672
F0.0
sF63.13325303729901
F0.0
sF0.4681866677584967
F0.0
sF90.50501037764255
F0.0
sF69.93911541103392
F0.0
sF52.281264284333794
F0.0
sF68.30774508741433
F0.0
sF62.16813153516843
F0.0
sF98.00702895390442
F0.0
sF11.15629463066069
F0.0
sF88.43224950613805
F37.52178089517109
sF26.802228596129883
F0.0
sF37.28958446227575
F0.0
sF88.87050514130867
F0.0
sF74.37658041006577
F0.0
sF58.840410143866016
F0.0
sF87.81497098706814
F0.0
sF97.37045208283706
F0.0
sF69.41372625960014
F0.0
sF68.18120522345966
F0.0
sF88.37897487045896
F0.0
ssS'6'
p21
(dp22
F0.9297731520785214
F0.0
sF89.74988578348281
F0.0
sF31.86742981088178
F0.0
sF24.50998124617542
F1433.917895523396
sF14.30357695973741
F0.0
sF31.87636582309487
F0.0
sF97.1010838104225
F0.0
sF38.96489000188186
F0.0
sF34.28669408140032
F0.0
sF71.9580970562756
F0.0
sF15.991500051513587
F0.0
sF55.417004340588605
F0.0
sF2.2705848826676203
F0.0
sF1.3473452638627392
F0.0
sF38.74272649845046
F0.0
sF31.580681423839415
F0.0
sF20.025396934264016
F0.0
sF90.8116749344082
F0.0
sF61.288346679286164
F0.0
sF37.51429891392868
F0.0
sF44.24498583884778
F0.0
sF92.21183319084625
F0.0
sF34.72546942366968
F0.0
sF94.94368340788559
F0.0
sF34.52922469691261
F0.0
sF5.366649383520722
F0.0
sF1.3745340718010575
F0.0
sF49.392847258972786
F0.0
sF20.883061535855823
F0.0
sF87.32479046897582
F0.0
sF100.0
F0.0
sF22.824483145790715
F0.0
sF95.81154941150723
F0.0
sF70.00204964386384
F0.0
sF91.51014453612402
F0.0
sF36.14836379657414
F0.0
sF92.37737797143672
F0.0
sF63.13325303729901
F0.0
sF0.4681866677584967
F0.0
sF90.50501037764255
F0.0
sF69.93911541103392
F0.0
sF52.281264284333794
F0.0
sF68.30774508741433
F0.0
sF62.16813153516843
F0.0
sF98.00702895390442
F0.0
sF11.15629463066069
F0.0
sF88.43224950613805
F0.0
sF26.802228596129883
F0.0
sF37.28958446227575
F0.0
sF88.87050514130867
F0.0
sF74.37658041006577
F0.0
sF58.840410143866016
F0.0
sF87.81497098706814
F0.0
sF97.37045208283706
F0.0
sF69.41372625960014
F0.0
sF68.18120522345966
F0.0
sF88.37897487045896
F0.0
ssS'9'
p23
(dp24
F0.9297731520785214
F0.0
sF89.74988578348281
F0.0
sF31.86742981088178
F1433.917895523396
sF24.50998124617542
F1433.917895523396
sF14.30357695973741
F0.0
sF31.87636582309487
F0.0
sF97.1010838104225
F0.0
sF38.96489000188186
F4.463767165384292
sF34.28669408140032
F0.0
sF71.9580970562756
F0.0
sF15.991500051513587
F0.0
sF55.417004340588605
F0.0
sF2.2705848826676203
F0.0
sF1.3473452638627392
F0.0
sF38.74272649845046
F0.0
sF31.580681423839415
F1433.917895523396
sF20.025396934264016
F0.0
sF90.8116749344082
F0.0
sF61.288346679286164
F0.0
sF37.51429891392868
F0.0
sF44.24498583884778
F110.5528324848287
sF92.21183319084625
F0.0
sF34.72546942366968
F0.0
sF94.94368340788559
F0.0
sF34.52922469691261
F0.0
sF5.366649383520722
F0.0
sF1.3745340718010575
F0.0
sF49.392847258972786
F110.5528324848287
sF20.883061535855823
F0.0
sF87.32479046897582
F0.0
sF100.0
F0.0
sF22.824483145790715
F0.0
sF95.81154941150723
F0.0
sF70.00204964386384
F0.0
sF91.51014453612402
F0.0
sF36.14836379657414
F0.0
sF92.37737797143672
F0.0
sF63.13325303729901
F0.0
sF0.4681866677584967
F0.0
sF90.50501037764255
F0.0
sF69.93911541103392
F0.0
sF52.281264284333794
F0.0
sF68.30774508741433
F0.0
sF62.16813153516843
F1629.456260261052
sF98.00702895390442
F0.0
sF11.15629463066069
F0.0
sF88.43224950613805
F0.0
sF26.802228596129883
F1433.917895523396
sF37.28958446227575
F0.0
sF88.87050514130867
F0.0
sF74.37658041006577
F0.0
sF58.840410143866016
F0.0
sF87.81497098706814
F0.0
sF97.37045208283706
F0.0
sF69.41372625960014
F0.0
sF68.18120522345966
F0.0
sF88.37897487045896
F0.0
ssS'8'
p25
(dp26
F0.9297731520785214
F0.0
sF89.74988578348281
F0.0
sF31.86742981088178
F0.0
sF24.50998124617542
F0.0
sF14.30357695973741
F0.0
sF31.87636582309487
F0.0
sF97.1010838104225
F0.0
sF38.96489000188186
F0.0
sF34.28669408140032
F0.0
sF71.9580970562756
F0.0
sF15.991500051513587
F0.0
sF55.417004340588605
F0.0
sF2.2705848826676203
F0.0
sF1.3473452638627392
F0.0
sF38.74272649845046
F0.0
sF31.580681423839415
F0.0
sF20.025396934264016
F0.0
sF90.8116749344082
F0.0
sF61.288346679286164
F0.0
sF37.51429891392868
F0.0
sF44.24498583884778
F0.0
sF92.21183319084625
F0.0
sF34.72546942366968
F0.0
sF94.94368340788559
F0.0
sF34.52922469691261
F0.0
sF5.366649383520722
F0.0
sF1.3745340718010575
F0.0
sF49.392847258972786
F0.0
sF20.883061535855823
F0.0
sF87.32479046897582
F0.0
sF100.0
F0.0
sF22.824483145790715
F0.0
sF95.81154941150723
F0.0
sF70.00204964386384
F0.0
sF91.51014453612402
F0.0
sF36.14836379657414
F0.0
sF92.37737797143672
F0.0
sF63.13325303729901
F0.0
sF0.4681866677584967
F0.0
sF90.50501037764255
F0.0
sF69.93911541103392
F0.0
sF52.281264284333794
F0.0
sF68.30774508741433
F0.0
sF62.16813153516843
F0.0
sF98.00702895390442
F0.0
sF11.15629463066069
F0.0
sF88.43224950613805
F0.0
sF26.802228596129883
F0.0
sF37.28958446227575
F0.0
sF88.87050514130867
F0.0
sF74.37658041006577
F0.0
sF58.840410143866016
F0.0
sF87.81497098706814
F0.0
sF97.37045208283706
F0.0
sF69.41372625960014
F0.0
sF68.18120522345966
F0.0
sF88.37897487045896
F0.0
ss.