(dp0
S'11'
p1
(dp2
F39.71262743583119
F7062.442828432262
sF98.4474030268212
F0.0
sF31.999687236753932
F0.0
sF90.8182145981255
F0.0
sF67.92667403302652
F0.0
sF59.41127040764964
F7062.442828432262
sF96.97103941556651
F0.0
sF94.45611643044136
F0.0
sF81.83786850826748
F2.5194023203703355
sF42.31388481515437
F7062.442828432262
sF41.06847054468504
F7062.442828432262
sF22.278091723238155
F0.0
sF56.69104208674378
F7062.442828432262
sF61.39093478686634
F7062.442828432262
sF54.87746515065513
F7062.442828432262
sF89.32121451205022
F0.0
sF61.421135855314596
F7062.442828432262
sF13.455672503002031
F0.0
sF19.878426137056497
F0.0
sF81.584398652186
F351.6446264478468
sF63.27663921740965
F617.8072870735524
sF60.903666402994986
F7062.442828432262
sF2.359059416331988
F0.0
sF94.48906117961505
F0.0
sF24.1320941641333
F0.0
sF89.25308792404718
F0.0
sF27.480982722876274
F0.0
sF64.40748199012464
F617.8072870735524
sF79.42609013671806
F0.0
sF77.7317161272031
F0.0
sF18.579993255160478
F0.0
sF33.57149700068622
F0.0
sF63.8994770662073
F617.8072870735524
sF21.31293018103355
F0.0
sF100.0
F0.0
sF64.8967631130064
F0.0
sF53.91499554493517
F7062.442828432262
sF83.43201144567504
F18.364629352872125
sF22.52581331493392
F0.0
sF72.63331316970945
F0.0
sF78.13441189433178
F0.0
sF61.86949408259534
F1194.61128109709
sF76.66468557090026
F0.0
sF64.27905042707731
F617.8072870735524
sF75.2753541877253
F0.0
sF32.80437360133133
F0.0
sF44.168890858398306
F7062.442828432262
sF61.23866173149713
F7062.442828432262
sF88.42947958329005
F0.0
sF24.02708578529516
F0.0
sF72.59343557165808
F0.0
sF62.513125590706636
F617.8072870735524
sF76.99328472475085
F0.0
sF50.425124453022434
F7062.442828432262
sF60.916407967138554
F7062.442828432262
sF88.0812366680568
F0.0
sF95.37871915545995
F0.0
sF64.70053005485087
F232.02768531867562
sF25.327848244670754
F0.0
sF38.24357192361394
F7062.442828432262
sF24.192830891936
F0.0
sF68.88539079083769
F0.0
sF70.36273928961235
F0.0
sF84.42937459514606
F28.278072599635895
ssS'10'
p3
(dp4
F39.71262743583119
F0.0
sF98.4474030268212
F0.0
sF31.999687236753932
F0.0
sF90.8182145981255
F0.0
sF67.92667403302652
F0.0
sF59.41127040764964
F0.0
sF96.97103941556651
F0.0
sF94.45611643044136
F0.0
sF81.83786850826748
F0.0
sF42.31388481515437
F0.0
sF41.06847054468504
F0.0
sF22.278091723238155
F0.0
sF56.69104208674378
F0.0
sF61.39093478686634
F0.0
sF54.87746515065513
F0.0
sF89.32121451205022
F0.0
sF61.421135855314596
F0.0
sF13.455672503002031
F0.0
sF19.878426137056497
F0.0
sF81.584398652186
F0.0
sF63.27663921740965
F0.0
sF60.903666402994986
F0.0
sF2.359059416331988
F0.0
sF94.48906117961505
F0.0
sF24.1320941641333
F0.0
sF89.25308792404718
F0.0
sF27.480982722876274
F0.0
sF64.40748199012464
F0.0
sF79.42609013671806
F0.0
sF77.7317161272031
F0.0
sF18.579993255160478
F0.0
sF33.57149700068622
F0.0
sF63.8994770662073
F0.0
sF21.31293018103355
F0.0
sF100.0
F0.0
sF64.8967631130064
F578.530281693926
sF53.91499554493517
F0.0
sF83.43201144567504
F0.0
sF22.52581331493392
F0.0
sF72.63331316970945
F0.0
sF78.13441189433178
F0.0
sF61.86949408259534
F0.0
sF76.66468557090026
F0.0
sF64.27905042707731
F1114.9379089987146
sF75.2753541877253
F0.0
sF32.80437360133133
F0.0
sF44.168890858398306
F0.0
sF61.23866173149713
F0.0
sF88.42947958329005
F0.0
sF24.02708578529516
F0.0
sF72.59343557165808
F0.0
sF62.513125590706636
F0.0
sF76.99328472475085
F0.0
sF50.425124453022434
F0.0
sF60.916407967138554
F0.0
sF88.0812366680568
F0.0
sF95.37871915545995
F0.0
sF64.70053005485087
F346.5025963752504
sF25.327848244670754
F0.0
sF38.24357192361394
F0.0
sF24.192830891936
F0.0
sF68.88539079083769
F0.0
sF70.36273928961235
F0.0
sF84.42937459514606
F0.0
ssS'1'
p5
(dp6
F39.71262743583119
F0.0
sF98.4474030268212
F0.0
sF31.999687236753932
F0.0
sF90.8182145981255
F0.0
sF67.92667403302652
F0.0
sF59.41127040764964
F0.0
sF96.97103941556651
F0.0
sF94.45611643044136
F0.0
sF81.83786850826748
F0.0
sF42.31388481515437
F0.0
sF41.06847054468504
F0.0
sF22.278091723238155
F0.0
sF56.69104208674378
F0.0
sF61.39093478686634
F0.0
sF54.87746515065513
F0.0
sF89.32121451205022
F0.0
sF61.421135855314596
F4784.319443966029
sF13.455672503002031
F0.0
sF19.878426137056497
F0.0
sF81.584398652186
F0.0
sF63.27663921740965
F0.0
sF60.903666402994986
F0.0
sF2.359059416331988
F0.0
sF94.48906117961505
F0.0
sF24.1320941641333
F0.0
sF89.25308792404718
F0.0
sF27.480982722876274
F0.0
sF64.40748199012464
F0.0
sF79.42609013671806
F0.0
sF77.7317161272031
F0.0
sF18.579993255160478
F0.0
sF33.57149700068622
F0.0
sF63.8994770662073
F0.0
sF21.31293018103355
F0.0
sF100.0
F0.0
sF64.8967631130064
F0.0
sF53.91499554493517
F0.0
sF83.43201144567504
F448.61307978442204
sF22.52581331493392
F0.0
sF72.63331316970945
F0.0
sF78.13441189433178
F0.0
sF61.86949408259534
F803.6114235853263
sF76.66468557090026
F0.0
sF64.27905042707731
F0.0
sF75.2753541877253
F0.0
sF32.80437360133133
F0.0
sF44.168890858398306
F0.0
sF61.23866173149713
F0.0
sF88.42947958329005
F0.0
sF24.02708578529516
F0.0
sF72.59343557165808
F0.0
sF62.513125590706636
F0.0
sF76.99328472475085
F0.0
sF50.425124453022434
F0.0
sF60.916407967138554
F0.0
sF88.0812366680568
F0.0
sF95.37871915545995
F0.0
sF64.70053005485087
F0.0
sF25.327848244670754
F0.0
sF38.24357192361394
F0.0
sF24.192830891936
F0.0
sF68.88539079083769
F0.0
sF70.36273928961235
F0.0
sF84.42937459514606
F0.0
ssS'0'
p7
(dp8
F39.71262743583119
F0.0
sF98.4474030268212
F0.0
sF31.999687236753932
F0.0
sF90.8182145981255
F0.0
sF67.92667403302652
F0.0
sF59.41127040764964
F0.0
sF96.97103941556651
F0.0
sF94.45611643044136
F0.0
sF81.83786850826748
F0.0
sF42.31388481515437
F0.0
sF41.06847054468504
F0.0
sF22.278091723238155
F0.0
sF56.69104208674378
F0.0
sF61.39093478686634
F0.0
sF54.87746515065513
F0.0
sF89.32121451205022
F0.0
sF61.421135855314596
F1374.0261610822233
sF13.455672503002031
F0.0
sF19.878426137056497
F0.0
sF81.584398652186
F0.0
sF63.27663921740965
F1660.3160973926806
sF60.903666402994986
F0.0
sF2.359059416331988
F0.0
sF94.48906117961505
F0.0
sF24.1320941641333
F0.0
sF89.25308792404718
F0.0
sF27.480982722876274
F0.0
sF64.40748199012464
F545.378188393966
sF79.42609013671806
F0.0
sF77.7317161272031
F0.0
sF18.579993255160478
F0.0
sF33.57149700068622
F0.0
sF63.8994770662073
F1660.3160973926806
sF21.31293018103355
F0.0
sF100.0
F0.0
sF64.8967631130064
F0.0
sF53.91499554493517
F0.0
sF83.43201144567504
F3519.9110818132767
sF22.52581331493392
F0.0
sF72.63331316970945
F0.0
sF78.13441189433178
F0.0
sF61.86949408259534
F279.9006797838166
sF76.66468557090026
F0.0
sF64.27905042707731
F1660.3160973926806
sF75.2753541877253
F0.0
sF32.80437360133133
F0.0
sF44.168890858398306
F0.0
sF61.23866173149713
F0.0
sF88.42947958329005
F0.0
sF24.02708578529516
F0.0
sF72.59343557165808
F0.0
sF62.513125590706636
F1660.3160973926806
sF76.99328472475085
F0.0
sF50.425124453022434
F0.0
sF60.916407967138554
F0.0
sF88.0812366680568
F0.0
sF95.37871915545995
F0.0
sF64.70053005485087
F584.6551937735923
sF25.327848244670754
F0.0
sF38.24357192361394
F0.0
sF24.192830891936
F0.0
sF68.88539079083769
F0.0
sF70.36273928961235
F0.0
sF84.42937459514606
F19.826886493527546
ssS'3'
p9
(dp10
F39.71262743583119
F0.0
sF98.4474030268212
F0.0
sF31.999687236753932
F0.0
sF90.8182145981255
F0.0
sF67.92667403302652
F0.0
sF59.41127040764964
F0.0
sF96.97103941556651
F0.0
sF94.45611643044136
F0.0
sF81.83786850826748
F0.0
sF42.31388481515437
F0.0
sF41.06847054468504
F0.0
sF22.278091723238155
F0.0
sF56.69104208674378
F0.0
sF61.39093478686634
F0.0
sF54.87746515065513
F0.0
sF89.32121451205022
F0.0
sF61.421135855314596
F0.0
sF13.455672503002031
F0.0
sF19.878426137056497
F0.0
sF81.584398652186
F0.0
sF63.27663921740965
F0.0
sF60.903666402994986
F0.0
sF2.359059416331988
F0.0
sF94.48906117961505
F0.0
sF24.1320941641333
F0.0
sF89.25308792404718
F0.0
sF27.480982722876274
F0.0
sF64.40748199012464
F0.0
sF79.42609013671806
F0.0
sF77.7317161272031
F0.0
sF18.579993255160478
F0.0
sF33.57149700068622
F0.0
sF63.8994770662073
F0.0
sF21.31293018103355
F0.0
sF100.0
F0.0
sF64.8967631130064
F0.0
sF53.91499554493517
F0.0
sF83.43201144567504
F1725.4587626755883
sF22.52581331493392
F0.0
sF72.63331316970945
F0.0
sF78.13441189433178
F0.0
sF61.86949408259534
F0.0
sF76.66468557090026
F0.0
sF64.27905042707731
F0.0
sF75.2753541877253
F0.0
sF32.80437360133133
F0.0
sF44.168890858398306
F0.0
sF61.23866173149713
F0.0
sF88.42947958329005
F0.0
sF24.02708578529516
F0.0
sF72.59343557165808
F0.0
sF62.513125590706636
F0.0
sF76.99328472475085
F0.0
sF50.425124453022434
F0.0
sF60.916407967138554
F0.0
sF88.0812366680568
F0.0
sF95.37871915545995
F0.0
sF64.70053005485087
F584.6551937735923
sF25.327848244670754
F0.0
sF38.24357192361394
F0.0
sF24.192830891936
F0.0
sF68.88539079083769
F0.0
sF70.36273928961235
F0.0
sF84.42937459514606
F2.707468897042355
ssS'2'
p11
(dp12
F39.71262743583119
F0.0
sF98.4474030268212
F0.0
sF31.999687236753932
F0.0
sF90.8182145981255
F0.0
sF67.92667403302652
F0.0
sF59.41127040764964
F0.0
sF96.97103941556651
F0.0
sF94.45611643044136
F0.0
sF81.83786850826748
F0.0
sF42.31388481515437
F0.0
sF41.06847054468504
F0.0
sF22.278091723238155
F0.0
sF56.69104208674378
F0.0
sF61.39093478686634
F0.0
sF54.87746515065513
F0.0
sF89.32121451205022
F0.0
sF61.421135855314596
F0.0
sF13.455672503002031
F0.0
sF19.878426137056497
F0.0
sF81.584398652186
F0.0
sF63.27663921740965
F0.0
sF60.903666402994986
F0.0
sF2.359059416331988
F0.0
sF94.48906117961505
F0.0
sF24.1320941641333
F0.0
sF89.25308792404718
F0.0
sF27.480982722876274
F0.0
sF64.40748199012464
F0.0
sF79.42609013671806
F3961.866805006257
sF77.7317161272031
F0.0
sF18.579993255160478
F0.0
sF33.57149700068622
F7062.442828432262
sF63.8994770662073
F0.0
sF21.31293018103355
F0.0
sF100.0
F0.0
sF64.8967631130064
F0.0
sF53.91499554493517
F0.0
sF83.43201144567504
F0.0
sF22.52581331493392
F0.0
sF72.63331316970945
F0.0
sF78.13441189433178
F0.0
sF61.86949408259534
F0.0
sF76.66468557090026
F0.0
sF64.27905042707731
F0.0
sF75.2753541877253
F0.0
sF32.80437360133133
F0.0
sF44.168890858398306
F0.0
sF61.23866173149713
F0.0
sF88.42947958329005
F0.0
sF24.02708578529516
F0.0
sF72.59343557165808
F0.0
sF62.513125590706636
F0.0
sF76.99328472475085
F0.0
sF50.425124453022434
F0.0
sF60.916407967138554
F0.0
sF88.0812366680568
F0.0
sF95.37871915545995
F0.0
sF64.70053005485087
F0.0
sF25.327848244670754
F0.0
sF38.24357192361394
F0.0
sF24.192830891936
F0.0
sF68.88539079083769
F0.0
sF70.36273928961235
F0.0
sF84.42937459514606
F0.0
ssS'5'
p13
(dp14
F39.71262743583119
F0.0
sF98.4474030268212
F0.0
sF31.999687236753932
F0.0
sF90.8182145981255
F0.0
sF67.92667403302652
F0.0
sF59.41127040764964
F0.0
sF96.97103941556651
F0.0
sF94.45611643044136
F0.0
sF81.83786850826748
F0.0
sF42.31388481515437
F0.0
sF41.06847054468504
F0.0
sF22.278091723238155
F0.0
sF56.69104208674378
F0.0
sF61.39093478686634
F0.0
sF54.87746515065513
F0.0
sF89.32121451205022
F0.0
sF61.421135855314596
F832.1267326103077
sF13.455672503002031
F0.0
sF19.878426137056497
F0.0
sF81.584398652186
F0.0
sF63.27663921740965
F0.0
sF60.903666402994986
F0.0
sF2.359059416331988
F0.0
sF94.48906117961505
F0.0
sF24.1320941641333
F0.0
sF89.25308792404718
F0.0
sF27.480982722876274
F0.0
sF64.40748199012464
F0.0
sF79.42609013671806
F0.0
sF77.7317161272031
F0.0
sF18.579993255160478
F0.0
sF33.57149700068622
F0.0
sF63.8994770662073
F0.0
sF21.31293018103355
F0.0
sF100.0
F0.0
sF64.8967631130064
F0.0
sF53.91499554493517
F0.0
sF83.43201144567504
F0.0
sF22.52581331493392
F0.0
sF72.63331316970945
F0.0
sF78.13441189433178
F0.0
sF61.86949408259534
F0.0
sF76.66468557090026
F0.0
sF64.27905042707731
F0.0
sF75.2753541877253
F0.0
sF32.80437360133133
F0.0
sF44.168890858398306
F0.0
sF61.23866173149713
F0.0
sF88.42947958329005
F0.0
sF24.02708578529516
F0.0
sF72.59343557165808
F0.0
sF62.513125590706636
F0.0
sF76.99328472475085
F0.0
sF50.425124453022434
F0.0
sF60.916407967138554
F0.0
sF88.0812366680568
F90.3110967451333
sF95.37871915545995
F0.0
sF64.70053005485087
F0.0
sF25.327848244670754
F0.0
sF38.24357192361394
F0.0
sF24.192830891936
F0.0
sF68.88539079083769
F0.0
sF70.36273928961235
F0.0
sF84.42937459514606
F0.0
ssS'4'
p15
(dp16
F39.71262743583119
F0.0
sF98.4474030268212
F0.0
sF31.999687236753932
F0.0
sF90.8182145981255
F0.0
sF67.92667403302652
F0.0
sF59.41127040764964
F0.0
sF96.97103941556651
F0.0
sF94.45611643044136
F0.0
sF81.83786850826748
F3607.70277623804
sF42.31388481515437
F0.0
sF41.06847054468504
F0.0
sF22.278091723238155
F0.0
sF56.69104208674378
F0.0
sF61.39093478686634
F0.0
sF54.87746515065513
F0.0
sF89.32121451205022
F0.0
sF61.421135855314596
F0.0
sF13.455672503002031
F0.0
sF19.878426137056497
F0.0
sF81.584398652186
F3961.866805006257
sF63.27663921740965
F0.0
sF60.903666402994986
F0.0
sF2.359059416331988
F0.0
sF94.48906117961505
F0.0
sF24.1320941641333
F0.0
sF89.25308792404718
F0.0
sF27.480982722876274
F0.0
sF64.40748199012464
F0.0
sF79.42609013671806
F3961.866805006257
sF77.7317161272031
F0.0
sF18.579993255160478
F0.0
sF33.57149700068622
F7062.442828432262
sF63.8994770662073
F0.0
sF21.31293018103355
F0.0
sF100.0
F0.0
sF64.8967631130064
F0.0
sF53.91499554493517
F0.0
sF83.43201144567504
F3591.857549205538
sF22.52581331493392
F0.0
sF72.63331316970945
F0.0
sF78.13441189433178
F0.0
sF61.86949408259534
F0.0
sF76.66468557090026
F0.0
sF64.27905042707731
F0.0
sF75.2753541877253
F0.0
sF32.80437360133133
F0.0
sF44.168890858398306
F0.0
sF61.23866173149713
F0.0
sF88.42947958329005
F0.0
sF24.02708578529516
F0.0
sF72.59343557165808
F0.0
sF62.513125590706636
F0.0
sF76.99328472475085
F0.0
sF50.425124453022434
F0.0
sF60.916407967138554
F0.0
sF88.0812366680568
F0.0
sF95.37871915545995
F0.0
sF64.70053005485087
F0.0
sF25.327848244670754
F0.0
sF38.24357192361394
F0.0
sF24.192830891936
F0.0
sF68.88539079083769
F0.0
sF70.36273928961235
F0.0
sF84.42937459514606
F36.29824043931348
ssS'7'
p17
(dp18
F39.71262743583119
F0.0
sF98.4474030268212
F0.0
sF31.999687236753932
F0.0
sF90.8182145981255
F0.0
sF67.92667403302652
F0.0
sF59.41127040764964
F0.0
sF96.97103941556651
F0.0
sF94.45611643044136
F0.0
sF81.83786850826748
F0.0
sF42.31388481515437
F0.0
sF41.06847054468504
F0.0
sF22.278091723238155
F0.0
sF56.69104208674378
F0.0
sF61.39093478686634
F0.0
sF54.87746515065513
F0.0
sF89.32121451205022
F0.0
sF61.421135855314596
F687.0130805411117
sF13.455672503002031
F0.0
sF19.878426137056497
F0.0
sF81.584398652186
F0.0
sF63.27663921740965
F0.0
sF60.903666402994986
F0.0
sF2.359059416331988
F0.0
sF94.48906117961505
F0.0
sF24.1320941641333
F0.0
sF89.25308792404718
F0.0
sF27.480982722876274
F0.0
sF64.40748199012464
F0.0
sF79.42609013671806
F0.0
sF77.7317161272031
F0.0
sF18.579993255160478
F0.0
sF33.57149700068622
F0.0
sF63.8994770662073
F0.0
sF21.31293018103355
F0.0
sF100.0
F0.0
sF64.8967631130064
F0.0
sF53.91499554493517
F0.0
sF83.43201144567504
F897.2261595688441
sF22.52581331493392
F0.0
sF72.63331316970945
F0.0
sF78.13441189433178
F0.0
sF61.86949408259534
F0.0
sF76.66468557090026
F0.0
sF64.27905042707731
F0.0
sF75.2753541877253
F0.0
sF32.80437360133133
F0.0
sF44.168890858398306
F0.0
sF61.23866173149713
F0.0
sF88.42947958329005
F0.0
sF24.02708578529516
F0.0
sF72.59343557165808
F0.0
sF62.513125590706636
F0.0
sF76.99328472475085
F0.0
sF50.425124453022434
F0.0
sF60.916407967138554
F0.0
sF88.0812366680568
F0.0
sF95.37871915545995
F0.0
sF64.70053005485087
F0.0
sF25.327848244670754
F0.0
sF38.24357192361394
F0.0
sF24.192830891936
F0.0
sF68.88539079083769
F0.0
sF70.36273928961235
F0.0
sF84.42937459514606
F2.707468897042355
ssS'6'
p19
(dp20
F39.71262743583119
F0.0
sF98.4474030268212
F0.0
sF31.999687236753932
F0.0
sF90.8182145981255
F0.0
sF67.92667403302652
F0.0
sF59.41127040764964
F0.0
sF96.97103941556651
F0.0
sF94.45611643044136
F0.0
sF81.83786850826748
F0.0
sF42.31388481515437
F0.0
sF41.06847054468504
F0.0
sF22.278091723238155
F0.0
sF56.69104208674378
F0.0
sF61.39093478686634
F0.0
sF54.87746515065513
F0.0
sF89.32121451205022
F0.0
sF61.421135855314596
F1204.1403891912746
sF13.455672503002031
F0.0
sF19.878426137056497
F0.0
sF81.584398652186
F0.0
sF63.27663921740965
F0.0
sF60.903666402994986
F0.0
sF2.359059416331988
F0.0
sF94.48906117961505
F0.0
sF24.1320941641333
F0.0
sF89.25308792404718
F0.0
sF27.480982722876274
F0.0
sF64.40748199012464
F0.0
sF79.42609013671806
F0.0
sF77.7317161272031
F0.0
sF18.579993255160478
F0.0
sF33.57149700068622
F0.0
sF63.8994770662073
F0.0
sF21.31293018103355
F0.0
sF100.0
F0.0
sF64.8967631130064
F0.0
sF53.91499554493517
F0.0
sF83.43201144567504
F0.0
sF22.52581331493392
F0.0
sF72.63331316970945
F0.0
sF78.13441189433178
F0.0
sF61.86949408259534
F0.0
sF76.66468557090026
F0.0
sF64.27905042707731
F0.0
sF75.2753541877253
F0.0
sF32.80437360133133
F0.0
sF44.168890858398306
F0.0
sF61.23866173149713
F0.0
sF88.42947958329005
F0.0
sF24.02708578529516
F0.0
sF72.59343557165808
F0.0
sF62.513125590706636
F0.0
sF76.99328472475085
F0.0
sF50.425124453022434
F0.0
sF60.916407967138554
F0.0
sF88.0812366680568
F0.0
sF95.37871915545995
F0.0
sF64.70053005485087
F0.0
sF25.327848244670754
F0.0
sF38.24357192361394
F0.0
sF24.192830891936
F0.0
sF68.88539079083769
F0.0
sF70.36273928961235
F0.0
sF84.42937459514606
F0.0
ssS'9'
p21
(dp22
F39.71262743583119
F0.0
sF98.4474030268212
F0.0
sF31.999687236753932
F0.0
sF90.8182145981255
F0.0
sF67.92667403302652
F0.0
sF59.41127040764964
F0.0
sF96.97103941556651
F0.0
sF94.45611643044136
F0.0
sF81.83786850826748
F0.0
sF42.31388481515437
F0.0
sF41.06847054468504
F0.0
sF22.278091723238155
F0.0
sF56.69104208674378
F0.0
sF61.39093478686634
F0.0
sF54.87746515065513
F0.0
sF89.32121451205022
F0.0
sF61.421135855314596
F1519.1398131514193
sF13.455672503002031
F0.0
sF19.878426137056497
F0.0
sF81.584398652186
F0.0
sF63.27663921740965
F0.0
sF60.903666402994986
F0.0
sF2.359059416331988
F0.0
sF94.48906117961505
F0.0
sF24.1320941641333
F0.0
sF89.25308792404718
F0.0
sF27.480982722876274
F0.0
sF64.40748199012464
F0.0
sF79.42609013671806
F0.0
sF77.7317161272031
F0.0
sF18.579993255160478
F0.0
sF33.57149700068622
F0.0
sF63.8994770662073
F0.0
sF21.31293018103355
F0.0
sF100.0
F0.0
sF64.8967631130064
F0.0
sF53.91499554493517
F0.0
sF83.43201144567504
F897.2261595688441
sF22.52581331493392
F0.0
sF72.63331316970945
F0.0
sF78.13441189433178
F0.0
sF61.86949408259534
F0.0
sF76.66468557090026
F0.0
sF64.27905042707731
F0.0
sF75.2753541877253
F0.0
sF32.80437360133133
F0.0
sF44.168890858398306
F0.0
sF61.23866173149713
F0.0
sF88.42947958329005
F0.0
sF24.02708578529516
F0.0
sF72.59343557165808
F0.0
sF62.513125590706636
F0.0
sF76.99328472475085
F0.0
sF50.425124453022434
F0.0
sF60.916407967138554
F0.0
sF88.0812366680568
F90.3110967451333
sF95.37871915545995
F0.0
sF64.70053005485087
F0.0
sF25.327848244670754
F0.0
sF38.24357192361394
F0.0
sF24.192830891936
F0.0
sF68.88539079083769
F0.0
sF70.36273928961235
F0.0
sF84.42937459514606
F0.49295941857166137
ssS'8'
p23
(dp24
F39.71262743583119
F0.0
sF98.4474030268212
F0.0
sF31.999687236753932
F0.0
sF90.8182145981255
F0.0
sF67.92667403302652
F0.0
sF59.41127040764964
F0.0
sF96.97103941556651
F0.0
sF94.45611643044136
F0.0
sF81.83786850826748
F0.0
sF42.31388481515437
F0.0
sF41.06847054468504
F0.0
sF22.278091723238155
F0.0
sF56.69104208674378
F0.0
sF61.39093478686634
F0.0
sF54.87746515065513
F0.0
sF89.32121451205022
F0.0
sF61.421135855314596
F0.0
sF13.455672503002031
F0.0
sF19.878426137056497
F0.0
sF81.584398652186
F0.0
sF63.27663921740965
F0.0
sF60.903666402994986
F0.0
sF2.359059416331988
F0.0
sF94.48906117961505
F0.0
sF24.1320941641333
F0.0
sF89.25308792404718
F0.0
sF27.480982722876274
F0.0
sF64.40748199012464
F0.0
sF79.42609013671806
F0.0
sF77.7317161272031
F0.0
sF18.579993255160478
F0.0
sF33.57149700068622
F0.0
sF63.8994770662073
F0.0
sF21.31293018103355
F0.0
sF100.0
F0.0
sF64.8967631130064
F578.530281693926
sF53.91499554493517
F0.0
sF83.43201144567504
F448.61307978442204
sF22.52581331493392
F0.0
sF72.63331316970945
F0.0
sF78.13441189433178
F0.0
sF61.86949408259534
F0.0
sF76.66468557090026
F0.0
sF64.27905042707731
F0.0
sF75.2753541877253
F0.0
sF32.80437360133133
F0.0
sF44.168890858398306
F0.0
sF61.23866173149713
F0.0
sF88.42947958329005
F0.0
sF24.02708578529516
F0.0
sF72.59343557165808
F0.0
sF62.513125590706636
F0.0
sF76.99328472475085
F0.0
sF50.425124453022434
F0.0
sF60.916407967138554
F0.0
sF88.0812366680568
F0.0
sF95.37871915545995
F0.0
sF64.70053005485087
F0.0
sF25.327848244670754
F0.0
sF38.24357192361394
F0.0
sF24.192830891936
F0.0
sF68.88539079083769
F0.0
sF70.36273928961235
F0.0
sF84.42937459514606
F0.0
ss.