(dp0
S'1'
p1
(dp2
F92.08956182622858
F0.0
sF48.68323538848274
F9.042931016941637
sF68.13350776730395
F0.0
sF82.06370663551144
F0.0
sF48.792683472715254
F0.0
sF75.37019604278595
F0.0
sF64.99810322497737
F0.0
sF69.20475316493786
F0.0
sF72.41193737375828
F0.0
sF81.33415585473844
F0.0
sF35.82491486774059
F4067.9491667932066
sF93.29182810066902
F0.0
sF81.46205605429729
F0.0
sF5.1280926173820855
F0.0
sF100.0
F0.0
sF93.16969084654261
F0.0
sF82.47284490842026
F0.0
sF33.11339237272777
F0.0
sF82.6859265978688
F0.0
sF71.24400926336597
F0.0
sF76.88948682335598
F0.0
sF44.82329873576048
F1486.415147824179
sF81.98783734159767
F0.0
sF85.27017133562094
F0.0
sF82.40214401501606
F0.0
sF33.76943191989939
F4067.9491667932066
ssS'0'
p3
(dp4
F92.08956182622858
F0.0
sF48.68323538848274
F1062.3932458769957
sF68.13350776730395
F490.81699577325384
sF82.06370663551144
F0.0
sF48.792683472715254
F1071.4361768939373
sF75.37019604278595
F0.0
sF64.99810322497737
F1071.4361768939373
sF69.20475316493786
F0.0
sF72.41193737375828
F0.0
sF81.33415585473844
F0.0
sF35.82491486774059
F1838.0603880409753
sF93.29182810066902
F0.0
sF81.46205605429729
F0.0
sF5.1280926173820855
F0.0
sF100.0
F0.0
sF93.16969084654261
F0.0
sF82.47284490842026
F0.0
sF33.11339237272777
F0.0
sF82.6859265978688
F0.0
sF71.24400926336597
F0.0
sF76.88948682335598
F0.0
sF44.82329873576048
F743.473630928052
sF81.98783734159767
F0.0
sF85.27017133562094
F0.0
sF82.40214401501606
F0.0
sF33.76943191989939
F0.0
ssS'3'
p5
(dp6
F92.08956182622858
F0.0
sF48.68323538848274
F0.0
sF68.13350776730395
F0.0
sF82.06370663551144
F0.0
sF48.792683472715254
F0.0
sF75.37019604278595
F0.0
sF64.99810322497737
F580.6191811206835
sF69.20475316493786
F0.0
sF72.41193737375828
F0.0
sF81.33415585473844
F0.0
sF35.82491486774059
F0.0
sF93.29182810066902
F0.0
sF81.46205605429729
F0.0
sF5.1280926173820855
F0.0
sF100.0
F0.0
sF93.16969084654261
F0.0
sF82.47284490842026
F0.0
sF33.11339237272777
F0.0
sF82.6859265978688
F0.0
sF71.24400926336597
F0.0
sF76.88948682335598
F0.0
sF44.82329873576048
F0.0
sF81.98783734159767
F0.0
sF85.27017133562094
F0.0
sF82.40214401501606
F0.0
sF33.76943191989939
F0.0
ssS'2'
p7
(dp8
F92.08956182622858
F0.0
sF48.68323538848274
F0.0
sF68.13350776730395
F490.81699577325384
sF82.06370663551144
F0.0
sF48.792683472715254
F0.0
sF75.37019604278595
F0.0
sF64.99810322497737
F0.0
sF69.20475316493786
F0.0
sF72.41193737375828
F0.0
sF81.33415585473844
F0.0
sF35.82491486774059
F0.0
sF93.29182810066902
F0.0
sF81.46205605429729
F0.0
sF5.1280926173820855
F0.0
sF100.0
F0.0
sF93.16969084654261
F0.0
sF82.47284490842026
F0.0
sF33.11339237272777
F0.0
sF82.6859265978688
F0.0
sF71.24400926336597
F0.0
sF76.88948682335598
F0.0
sF44.82329873576048
F0.0
sF81.98783734159767
F0.0
sF85.27017133562094
F0.0
sF82.40214401501606
F0.0
sF33.76943191989939
F0.0
ssS'5'
p9
(dp10
F92.08956182622858
F0.0
sF48.68323538848274
F0.0
sF68.13350776730395
F0.0
sF82.06370663551144
F0.0
sF48.792683472715254
F0.0
sF75.37019604278595
F0.0
sF64.99810322497737
F0.0
sF69.20475316493786
F0.0
sF72.41193737375828
F0.0
sF81.33415585473844
F0.0
sF35.82491486774059
F0.0
sF93.29182810066902
F0.0
sF81.46205605429729
F0.0
sF5.1280926173820855
F0.0
sF100.0
F0.0
sF93.16969084654261
F0.0
sF82.47284490842026
F0.0
sF33.11339237272777
F0.0
sF82.6859265978688
F0.0
sF71.24400926336597
F0.0
sF76.88948682335598
F0.0
sF44.82329873576048
F1158.4526018582937
sF81.98783734159767
F0.0
sF85.27017133562094
F0.0
sF82.40214401501606
F0.0
sF33.76943191989939
F0.0
ssS'4'
p11
(dp12
F92.08956182622858
F0.0
sF48.68323538848274
F0.0
sF68.13350776730395
F0.0
sF82.06370663551144
F0.0
sF48.792683472715254
F0.0
sF75.37019604278595
F0.0
sF64.99810322497737
F0.0
sF69.20475316493786
F0.0
sF72.41193737375828
F0.0
sF81.33415585473844
F0.0
sF35.82491486774059
F0.0
sF93.29182810066902
F0.0
sF81.46205605429729
F0.0
sF5.1280926173820855
F0.0
sF100.0
F0.0
sF93.16969084654261
F0.0
sF82.47284490842026
F0.0
sF33.11339237272777
F0.0
sF82.6859265978688
F0.0
sF71.24400926336597
F0.0
sF76.88948682335598
F0.0
sF44.82329873576048
F0.0
sF81.98783734159767
F0.0
sF85.27017133562094
F0.0
sF82.40214401501606
F0.0
sF33.76943191989939
F4067.9491667932066
ss.