(dp0
S'1'
p1
(dp2
F52.399105148503374
F0.0
sF6.703571341911507
F0.0
sF75.78026622745247
F651.6531410623261
sF83.62919116685474
F0.0
sF56.28480941635639
F0.0
sF42.80254801228882
F0.0
sF59.34925517493079
F0.0
sF31.370672546862984
F0.0
sF48.193417313173406
F0.0
sF75.77929590398148
F651.7603166187973
sF75.61304700994472
F670.123077351401
sF26.42284836674213
F0.0
sF59.94215142732125
F0.0
sF86.55141945299945
F0.0
sF83.50541974915897
F0.0
sF25.160559466610902
F0.0
sF19.016632877584268
F0.0
sF80.41206683462686
F140.05487267404152
sF54.52519781573363
F0.0
sF74.82282625952246
F0.0
sF44.366589142806795
F0.0
sF90.29655014270881
F0.0
sF81.92135944064438
F0.0
sF22.67319976189898
F0.0
sF99.28829648357686
F0.0
sF35.86844093553039
F0.0
sF52.49073257040008
F0.0
sF81.68006613089698
F0.0
sF44.6890894123902
F0.0
sF93.82458263820659
F0.0
sF79.73349567329026
F215.00538556535727
sF23.863822474044515
F0.0
sF100.0
F0.0
sF54.07400826577283
F0.0
sF61.35534226382198
F0.0
sF84.87161137882042
F0.0
sF38.63106480839467
F0.0
sF59.629901380901956
F0.0
sF82.92690772790067
F0.0
sF90.53992393702464
F0.0
sF76.31767987524688
F592.2939598415314
sF30.727350161612218
F0.0
ssS'0'
p3
(dp4
F52.399105148503374
F0.0
sF6.703571341911507
F0.0
sF75.78026622745247
F22.92494179827186
sF83.62919116685474
F0.0
sF56.28480941635639
F0.0
sF42.80254801228882
F0.0
sF59.34925517493079
F0.0
sF31.370672546862984
F0.0
sF48.193417313173406
F0.0
sF75.77929590398148
F22.791915167543745
sF75.61304700994472
F0.0
sF26.42284836674213
F0.0
sF59.94215142732125
F0.0
sF86.55141945299945
F0.0
sF83.50541974915897
F0.0
sF25.160559466610902
F0.0
sF19.016632877584268
F0.0
sF80.41206683462686
F564.8934805330363
sF54.52519781573363
F0.0
sF74.82282625952246
F0.0
sF44.366589142806795
F0.0
sF90.29655014270881
F0.0
sF81.92135944064438
F564.8934805330363
sF22.67319976189898
F0.0
sF99.28829648357686
F0.0
sF35.86844093553039
F0.0
sF52.49073257040008
F0.0
sF81.68006613089698
F564.8934805330363
sF44.6890894123902
F0.0
sF93.82458263820659
F0.0
sF79.73349567329026
F564.8934805330363
sF23.863822474044515
F0.0
sF100.0
F0.0
sF54.07400826577283
F0.0
sF61.35534226382198
F0.0
sF84.87161137882042
F0.0
sF38.63106480839467
F0.0
sF59.629901380901956
F0.0
sF82.92690772790067
F0.0
sF90.53992393702464
F0.0
sF76.31767987524688
F96.60174032002563
sF30.727350161612218
F0.0
ssS'3'
p5
(dp6
F52.399105148503374
F0.0
sF6.703571341911507
F0.0
sF75.78026622745247
F628.6563291283302
sF83.62919116685474
F0.0
sF56.28480941635639
F0.0
sF42.80254801228882
F0.0
sF59.34925517493079
F0.0
sF31.370672546862984
F0.0
sF48.193417313173406
F0.0
sF75.77929590398148
F628.7893557590584
sF75.61304700994472
F651.5812709266021
sF26.42284836674213
F0.0
sF59.94215142732125
F0.0
sF86.55141945299945
F0.0
sF83.50541974915897
F0.0
sF25.160559466610902
F0.0
sF19.016632877584268
F0.0
sF80.41206683462686
F0.0
sF54.52519781573363
F0.0
sF74.82282625952246
F0.0
sF44.366589142806795
F0.0
sF90.29655014270881
F0.0
sF81.92135944064438
F0.0
sF22.67319976189898
F0.0
sF99.28829648357686
F0.0
sF35.86844093553039
F0.0
sF52.49073257040008
F0.0
sF81.68006613089698
F0.0
sF44.6890894123902
F0.0
sF93.82458263820659
F0.0
sF79.73349567329026
F0.0
sF23.863822474044515
F0.0
sF100.0
F0.0
sF54.07400826577283
F0.0
sF61.35534226382198
F0.0
sF84.87161137882042
F0.0
sF38.63106480839467
F0.0
sF59.629901380901956
F0.0
sF82.92690772790067
F0.0
sF90.53992393702464
F0.0
sF76.31767987524688
F543.1949372018872
sF30.727350161612218
F0.0
ssS'2'
p7
(dp8
F52.399105148503374
F0.0
sF6.703571341911507
F0.0
sF75.78026622745247
F0.021277590592697928
sF83.62919116685474
F0.0
sF56.28480941635639
F0.0
sF42.80254801228882
F0.0
sF59.34925517493079
F0.0
sF31.370672546862984
F0.0
sF48.193417313173406
F0.0
sF75.77929590398148
F0.0
sF75.61304700994472
F0.0
sF26.42284836674213
F0.0
sF59.94215142732125
F0.0
sF86.55141945299945
F0.0
sF83.50541974915897
F0.0
sF25.160559466610902
F0.0
sF19.016632877584268
F0.0
sF80.41206683462686
F188.27680284009247
sF54.52519781573363
F0.0
sF74.82282625952246
F0.0
sF44.366589142806795
F0.0
sF90.29655014270881
F0.0
sF81.92135944064438
F221.37309610249326
sF22.67319976189898
F0.0
sF99.28829648357686
F0.0
sF35.86844093553039
F0.0
sF52.49073257040008
F0.0
sF81.68006613089698
F216.08193247403864
sF44.6890894123902
F0.0
sF93.82458263820659
F0.0
sF79.73349567329026
F173.39685837772427
sF23.863822474044515
F0.0
sF100.0
F0.0
sF54.07400826577283
F0.0
sF61.35534226382198
F0.0
sF84.87161137882042
F0.0
sF38.63106480839467
F0.0
sF59.629901380901956
F0.0
sF82.92690772790067
F243.4231087189021
sF90.53992393702464
F0.0
sF76.31767987524688
F23.590464399971168
sF30.727350161612218
F0.0
ssS'5'
p9
(dp10
F52.399105148503374
F0.0
sF6.703571341911507
F0.0
sF75.78026622745247
F749.0080005762751
sF83.62919116685474
F0.0
sF56.28480941635639
F0.0
sF42.80254801228882
F0.0
sF59.34925517493079
F0.0
sF31.370672546862984
F0.0
sF48.193417313173406
F0.0
sF75.77929590398148
F749.0292781668677
sF75.61304700994472
F749.0292781668677
sF26.42284836674213
F0.0
sF59.94215142732125
F0.0
sF86.55141945299945
F0.0
sF83.50541974915897
F0.0
sF25.160559466610902
F0.0
sF19.016632877584268
F0.0
sF80.41206683462686
F195.2011785528512
sF54.52519781573363
F0.0
sF74.82282625952246
F0.0
sF44.366589142806795
F0.0
sF90.29655014270881
F0.0
sF81.92135944064438
F22.050012616408843
sF22.67319976189898
F0.0
sF99.28829648357686
F0.0
sF35.86844093553039
F0.0
sF52.49073257040008
F0.0
sF81.68006613089698
F27.341176244863483
sF44.6890894123902
F0.0
sF93.82458263820659
F0.0
sF79.73349567329026
F285.03163590653514
sF23.863822474044515
F0.0
sF100.0
F0.0
sF54.07400826577283
F0.0
sF61.35534226382198
F0.0
sF84.87161137882042
F0.0
sF38.63106480839467
F0.0
sF59.629901380901956
F0.0
sF82.92690772790067
F0.0
sF90.53992393702464
F0.0
sF76.31767987524688
F737.2234071715859
sF30.727350161612218
F0.0
ssS'4'
p11
(dp12
F52.399105148503374
F0.0
sF6.703571341911507
F0.0
sF75.78026622745247
F0.0
sF83.62919116685474
F0.0
sF56.28480941635639
F0.0
sF42.80254801228882
F0.0
sF59.34925517493079
F0.0
sF31.370672546862984
F0.0
sF48.193417313173406
F0.0
sF75.77929590398148
F0.0
sF75.61304700994472
F0.0
sF26.42284836674213
F0.0
sF59.94215142732125
F0.0
sF86.55141945299945
F0.0
sF83.50541974915897
F0.0
sF25.160559466610902
F0.0
sF19.016632877584268
F0.0
sF80.41206683462686
F0.0
sF54.52519781573363
F0.0
sF74.82282625952246
F0.0
sF44.366589142806795
F0.0
sF90.29655014270881
F0.0
sF81.92135944064438
F0.0
sF22.67319976189898
F0.0
sF99.28829648357686
F0.0
sF35.86844093553039
F0.0
sF52.49073257040008
F0.0
sF81.68006613089698
F1262.4170371929324
sF44.6890894123902
F0.0
sF93.82458263820659
F0.0
sF79.73349567329026
F0.0
sF23.863822474044515
F0.0
sF100.0
F0.0
sF54.07400826577283
F0.0
sF61.35534226382198
F0.0
sF84.87161137882042
F0.0
sF38.63106480839467
F0.0
sF59.629901380901956
F0.0
sF82.92690772790067
F0.0
sF90.53992393702464
F0.0
sF76.31767987524688
F0.0
sF30.727350161612218
F0.0
ssS'7'
p13
(dp14
F52.399105148503374
F0.0
sF6.703571341911507
F0.0
sF75.78026622745247
F18.469936289074777
sF83.62919116685474
F0.0
sF56.28480941635639
F0.0
sF42.80254801228882
F0.0
sF59.34925517493079
F0.0
sF31.370672546862984
F0.0
sF48.193417313173406
F0.0
sF75.77929590398148
F18.362760732603626
sF75.61304700994472
F0.0
sF26.42284836674213
F0.0
sF59.94215142732125
F0.0
sF86.55141945299945
F0.0
sF83.50541974915897
F0.0
sF25.160559466610902
F0.0
sF19.016632877584268
F0.0
sF80.41206683462686
F982.3072918448494
sF54.52519781573363
F0.0
sF74.82282625952246
F0.0
sF44.366589142806795
F0.0
sF90.29655014270881
F0.0
sF81.92135944064438
F0.0
sF22.67319976189898
F0.0
sF99.28829648357686
F0.0
sF35.86844093553039
F0.0
sF52.49073257040008
F0.0
sF81.68006613089698
F1262.4170371929324
sF44.6890894123902
F0.0
sF93.82458263820659
F0.0
sF79.73349567329026
F832.4062660622179
sF23.863822474044515
F0.0
sF100.0
F0.0
sF54.07400826577283
F0.0
sF61.35534226382198
F0.0
sF84.87161137882042
F0.0
sF38.63106480839467
F0.0
sF59.629901380901956
F0.0
sF82.92690772790067
F0.0
sF90.53992393702464
F0.0
sF76.31767987524688
F77.82911750986949
sF30.727350161612218
F0.0
ssS'6'
p15
(dp16
F52.399105148503374
F0.0
sF6.703571341911507
F0.0
sF75.78026622745247
F0.0
sF83.62919116685474
F0.0
sF56.28480941635639
F0.0
sF42.80254801228882
F0.0
sF59.34925517493079
F0.0
sF31.370672546862984
F0.0
sF48.193417313173406
F0.0
sF75.77929590398148
F0.0
sF75.61304700994472
F0.0
sF26.42284836674213
F0.0
sF59.94215142732125
F0.0
sF86.55141945299945
F0.0
sF83.50541974915897
F0.0
sF25.160559466610902
F0.0
sF19.016632877584268
F0.0
sF80.41206683462686
F0.0
sF54.52519781573363
F0.0
sF74.82282625952246
F0.0
sF44.366589142806795
F0.0
sF90.29655014270881
F0.0
sF81.92135944064438
F0.0
sF22.67319976189898
F0.0
sF99.28829648357686
F0.0
sF35.86844093553039
F0.0
sF52.49073257040008
F0.0
sF81.68006613089698
F0.0
sF44.6890894123902
F0.0
sF93.82458263820659
F0.0
sF79.73349567329026
F0.0
sF23.863822474044515
F0.0
sF100.0
F0.0
sF54.07400826577283
F0.0
sF61.35534226382198
F0.0
sF84.87161137882042
F0.0
sF38.63106480839467
F0.0
sF59.629901380901956
F0.0
sF82.92690772790067
F243.4231087189021
sF90.53992393702464
F0.0
sF76.31767987524688
F0.0
sF30.727350161612218
F0.0
ssS'9'
p17
(dp18
F52.399105148503374
F0.0
sF6.703571341911507
F0.0
sF75.78026622745247
F0.0
sF83.62919116685474
F0.0
sF56.28480941635639
F0.0
sF42.80254801228882
F0.0
sF59.34925517493079
F0.0
sF31.370672546862984
F0.0
sF48.193417313173406
F0.0
sF75.77929590398148
F0.0
sF75.61304700994472
F0.0
sF26.42284836674213
F0.0
sF59.94215142732125
F0.0
sF86.55141945299945
F0.0
sF83.50541974915897
F0.0
sF25.160559466610902
F0.0
sF19.016632877584268
F0.0
sF80.41206683462686
F0.0
sF54.52519781573363
F0.0
sF74.82282625952246
F0.0
sF44.366589142806795
F0.0
sF90.29655014270881
F0.0
sF81.92135944064438
F564.8934805330363
sF22.67319976189898
F0.0
sF99.28829648357686
F0.0
sF35.86844093553039
F0.0
sF52.49073257040008
F0.0
sF81.68006613089698
F0.0
sF44.6890894123902
F0.0
sF93.82458263820659
F0.0
sF79.73349567329026
F0.0
sF23.863822474044515
F0.0
sF100.0
F0.0
sF54.07400826577283
F0.0
sF61.35534226382198
F0.0
sF84.87161137882042
F0.0
sF38.63106480839467
F0.0
sF59.629901380901956
F0.0
sF82.92690772790067
F0.0
sF90.53992393702464
F0.0
sF76.31767987524688
F0.0
sF30.727350161612218
F0.0
ssS'8'
p19
(dp20
F52.399105148503374
F0.0
sF6.703571341911507
F0.0
sF75.78026622745247
F0.0
sF83.62919116685474
F0.0
sF56.28480941635639
F0.0
sF42.80254801228882
F0.0
sF59.34925517493079
F0.0
sF31.370672546862984
F0.0
sF48.193417313173406
F0.0
sF75.77929590398148
F0.0
sF75.61304700994472
F2070.733626444871
sF26.42284836674213
F0.0
sF59.94215142732125
F0.0
sF86.55141945299945
F0.0
sF83.50541974915897
F0.0
sF25.160559466610902
F0.0
sF19.016632877584268
F0.0
sF80.41206683462686
F0.0
sF54.52519781573363
F0.0
sF74.82282625952246
F0.0
sF44.366589142806795
F0.0
sF90.29655014270881
F0.0
sF81.92135944064438
F0.0
sF22.67319976189898
F0.0
sF99.28829648357686
F0.0
sF35.86844093553039
F0.0
sF52.49073257040008
F0.0
sF81.68006613089698
F0.0
sF44.6890894123902
F0.0
sF93.82458263820659
F0.0
sF79.73349567329026
F0.0
sF23.863822474044515
F0.0
sF100.0
F0.0
sF54.07400826577283
F0.0
sF61.35534226382198
F0.0
sF84.87161137882042
F0.0
sF38.63106480839467
F0.0
sF59.629901380901956
F0.0
sF82.92690772790067
F0.0
sF90.53992393702464
F0.0
sF76.31767987524688
F0.0
sF30.727350161612218
F0.0
ss.