(dp0
S'1'
p1
(dp2
F52.405746466227086
F0.0
sF38.48631686910266
F0.0
sF36.587185172036506
F0.0
sF25.944643195958314
F0.0
sF20.533195690071405
F6.700788117189275
sF43.27185100747408
F0.0
sF27.62073922364026
F0.0
sF25.89685283492986
F0.0
sF42.98005365948718
F0.0
sF40.165043709515075
F0.0
sF42.056759763798944
F0.0
sF97.54382745185258
F0.0
sF28.38309531864577
F0.0
sF16.431349337332946
F0.0
sF32.14517802803801
F0.0
sF44.99799463524951
F0.0
sF11.866875952430968
F0.0
sF96.97510782569353
F0.0
sF58.41303209633625
F0.0
sF29.812199415291104
F0.0
sF45.4476601752032
F0.0
sF30.829945448808488
F0.0
sF88.73971152698937
F0.0
sF27.89826683800566
F0.0
sF2.941827040267986
F0.0
sF19.188412762751163
F1.3957039128845874
sF31.060258041900987
F0.0
sF8.069134313695148
F0.0
sF20.339827702203053
F4.858244224840651
sF17.065102770653155
F0.0
sF31.839677133782068
F0.0
sF38.5919772111871
F0.0
sF39.722815199479
F0.0
sF21.86496482589753
F0.0
sF47.05432389669052
F0.0
sF29.746103536558106
F0.0
sF100.0
F0.0
sF24.895610466246673
F0.0
sF30.53735130234664
F0.0
sF21.362313982981632
F88.54251214053204
sF38.73655247710845
F0.0
sF29.607023093301027
F0.0
sF30.615941931616547
F0.0
sF18.724292726141705
F0.0
ssS'0'
p3
(dp4
F52.405746466227086
F567.5304874135862
sF38.48631686910266
F0.0
sF36.587185172036506
F0.0
sF25.944643195958314
F0.0
sF20.533195690071405
F158.2326884268842
sF43.27185100747408
F13.093006903089579
sF27.62073922364026
F0.0
sF25.89685283492986
F0.0
sF42.98005365948718
F9.948794720356451
sF40.165043709515075
F0.0
sF42.056759763798944
F0.0
sF97.54382745185258
F0.0
sF28.38309531864577
F0.0
sF16.431349337332946
F0.0
sF32.14517802803801
F0.0
sF44.99799463524951
F140.05673020399598
sF11.866875952430968
F0.0
sF96.97510782569353
F0.0
sF58.41303209633625
F1412.6896018987852
sF29.812199415291104
F0.0
sF45.4476601752032
F144.90202396225564
sF30.829945448808488
F0.0
sF88.73971152698937
F1412.6896018987852
sF27.89826683800566
F0.0
sF2.941827040267986
F0.0
sF19.188412762751163
F95.74942370630393
sF31.060258041900987
F0.0
sF8.069134313695148
F0.0
sF20.339827702203053
F92.28688339434787
sF17.065102770653155
F0.0
sF31.839677133782068
F0.0
sF38.5919772111871
F0.0
sF39.722815199479
F0.0
sF21.86496482589753
F71.76712618036838
sF47.05432389669052
F713.0362369627737
sF29.746103536558106
F0.0
sF100.0
F0.0
sF24.895610466246673
F0.0
sF30.53735130234664
F0.0
sF21.362313982981632
F71.76712618036838
sF38.73655247710845
F0.0
sF29.607023093301027
F0.0
sF30.615941931616547
F0.0
sF18.724292726141705
F97.14512761918851
ssS'3'
p5
(dp6
F52.405746466227086
F0.0
sF38.48631686910266
F0.0
sF36.587185172036506
F0.0
sF25.944643195958314
F0.0
sF20.533195690071405
F156.4936098086868
sF43.27185100747408
F0.0
sF27.62073922364026
F0.0
sF25.89685283492986
F4.117041168082045
sF42.98005365948718
F0.0
sF40.165043709515075
F0.0
sF42.056759763798944
F0.0
sF97.54382745185258
F0.0
sF28.38309531864577
F0.0
sF16.431349337332946
F0.0
sF32.14517802803801
F0.0
sF44.99799463524951
F0.0
sF11.866875952430968
F0.0
sF96.97510782569353
F94.95862202246073
sF58.41303209633625
F0.0
sF29.812199415291104
F0.0
sF45.4476601752032
F0.0
sF30.829945448808488
F0.0
sF88.73971152698937
F1317.7309798763245
sF27.89826683800566
F0.0
sF2.941827040267986
F0.0
sF19.188412762751163
F0.0
sF31.060258041900987
F0.0
sF8.069134313695148
F0.0
sF20.339827702203053
F88.45780820584577
sF17.065102770653155
F0.0
sF31.839677133782068
F0.0
sF38.5919772111871
F0.0
sF39.722815199479
F0.0
sF21.86496482589753
F4.117041168082045
sF47.05432389669052
F0.0
sF29.746103536558106
F0.0
sF100.0
F0.0
sF24.895610466246673
F4.117041168082045
sF30.53735130234664
F0.0
sF21.362313982981632
F4.117041168082045
sF38.73655247710845
F0.0
sF29.607023093301027
F0.0
sF30.615941931616547
F0.0
sF18.724292726141705
F0.0
ssS'2'
p7
(dp8
F52.405746466227086
F0.0
sF38.48631686910266
F0.0
sF36.587185172036506
F0.0
sF25.944643195958314
F0.0
sF20.533195690071405
F0.0
sF43.27185100747408
F0.0
sF27.62073922364026
F0.0
sF25.89685283492986
F0.0
sF42.98005365948718
F0.0
sF40.165043709515075
F0.0
sF42.056759763798944
F115.04729776657618
sF97.54382745185258
F0.0
sF28.38309531864577
F0.0
sF16.431349337332946
F0.0
sF32.14517802803801
F0.0
sF44.99799463524951
F0.0
sF11.866875952430968
F0.0
sF96.97510782569353
F0.0
sF58.41303209633625
F0.0
sF29.812199415291104
F0.0
sF45.4476601752032
F0.0
sF30.829945448808488
F0.0
sF88.73971152698937
F0.0
sF27.89826683800566
F0.0
sF2.941827040267986
F0.0
sF19.188412762751163
F0.0
sF31.060258041900987
F0.0
sF8.069134313695148
F0.0
sF20.339827702203053
F0.0
sF17.065102770653155
F0.0
sF31.839677133782068
F0.0
sF38.5919772111871
F0.0
sF39.722815199479
F0.0
sF21.86496482589753
F0.0
sF47.05432389669052
F0.0
sF29.746103536558106
F0.0
sF100.0
F0.0
sF24.895610466246673
F0.0
sF30.53735130234664
F0.0
sF21.362313982981632
F0.0
sF38.73655247710845
F0.0
sF29.607023093301027
F0.0
sF30.615941931616547
F0.0
sF18.724292726141705
F0.0
ssS'5'
p9
(dp10
F52.405746466227086
F393.13190821889145
sF38.48631686910266
F0.0
sF36.587185172036506
F0.0
sF25.944643195958314
F0.0
sF20.533195690071405
F0.0
sF43.27185100747408
F0.0
sF27.62073922364026
F0.0
sF25.89685283492986
F0.0
sF42.98005365948718
F0.0
sF40.165043709515075
F0.0
sF42.056759763798944
F0.0
sF97.54382745185258
F0.0
sF28.38309531864577
F0.0
sF16.431349337332946
F0.0
sF32.14517802803801
F0.0
sF44.99799463524951
F0.0
sF11.866875952430968
F0.0
sF96.97510782569353
F0.0
sF58.41303209633625
F339.80268440813825
sF29.812199415291104
F0.0
sF45.4476601752032
F197.39299578301282
sF30.829945448808488
F0.0
sF88.73971152698937
F0.0
sF27.89826683800566
F0.0
sF2.941827040267986
F0.0
sF19.188412762751163
F0.0
sF31.060258041900987
F0.0
sF8.069134313695148
F0.0
sF20.339827702203053
F0.0
sF17.065102770653155
F0.0
sF31.839677133782068
F0.0
sF38.5919772111871
F0.0
sF39.722815199479
F0.0
sF21.86496482589753
F0.0
sF47.05432389669052
F197.39299578301282
sF29.746103536558106
F0.0
sF100.0
F0.0
sF24.895610466246673
F0.0
sF30.53735130234664
F0.0
sF21.362313982981632
F0.0
sF38.73655247710845
F0.0
sF29.607023093301027
F0.0
sF30.615941931616547
F0.0
sF18.724292726141705
F0.0
ssS'4'
p11
(dp12
F52.405746466227086
F0.0
sF38.48631686910266
F0.0
sF36.587185172036506
F0.0
sF25.944643195958314
F0.0
sF20.533195690071405
F0.0
sF43.27185100747408
F0.0
sF27.62073922364026
F0.0
sF25.89685283492986
F0.0
sF42.98005365948718
F0.0
sF40.165043709515075
F0.0
sF42.056759763798944
F0.0
sF97.54382745185258
F0.0
sF28.38309531864577
F0.0
sF16.431349337332946
F0.0
sF32.14517802803801
F0.0
sF44.99799463524951
F0.0
sF11.866875952430968
F0.0
sF96.97510782569353
F0.0
sF58.41303209633625
F0.0
sF29.812199415291104
F0.0
sF45.4476601752032
F197.39299578301282
sF30.829945448808488
F0.0
sF88.73971152698937
F0.0
sF27.89826683800566
F0.0
sF2.941827040267986
F0.0
sF19.188412762751163
F0.0
sF31.060258041900987
F0.0
sF8.069134313695148
F0.0
sF20.339827702203053
F0.0
sF17.065102770653155
F0.0
sF31.839677133782068
F0.0
sF38.5919772111871
F0.0
sF39.722815199479
F0.0
sF21.86496482589753
F0.0
sF47.05432389669052
F0.0
sF29.746103536558106
F0.0
sF100.0
F0.0
sF24.895610466246673
F0.0
sF30.53735130234664
F0.0
sF21.362313982981632
F88.54251214053204
sF38.73655247710845
F0.0
sF29.607023093301027
F0.0
sF30.615941931616547
F0.0
sF18.724292726141705
F0.0
ssS'7'
p13
(dp14
F52.405746466227086
F0.0
sF38.48631686910266
F0.0
sF36.587185172036506
F0.0
sF25.944643195958314
F0.0
sF20.533195690071405
F0.0
sF43.27185100747408
F0.0
sF27.62073922364026
F0.0
sF25.89685283492986
F4.117041168082045
sF42.98005365948718
F0.0
sF40.165043709515075
F0.0
sF42.056759763798944
F0.0
sF97.54382745185258
F0.0
sF28.38309531864577
F0.0
sF16.431349337332946
F0.0
sF32.14517802803801
F0.0
sF44.99799463524951
F108.36395924875916
sF11.866875952430968
F0.0
sF96.97510782569353
F94.95862202246073
sF58.41303209633625
F0.0
sF29.812199415291104
F0.0
sF45.4476601752032
F0.0
sF30.829945448808488
F0.0
sF88.73971152698937
F0.0
sF27.89826683800566
F0.0
sF2.941827040267986
F0.0
sF19.188412762751163
F0.0
sF31.060258041900987
F0.0
sF8.069134313695148
F0.0
sF20.339827702203053
F0.0
sF17.065102770653155
F0.0
sF31.839677133782068
F0.0
sF38.5919772111871
F0.0
sF39.722815199479
F0.0
sF21.86496482589753
F0.0
sF47.05432389669052
F0.0
sF29.746103536558106
F0.0
sF100.0
F0.0
sF24.895610466246673
F0.0
sF30.53735130234664
F0.0
sF21.362313982981632
F0.0
sF38.73655247710845
F0.0
sF29.607023093301027
F0.0
sF30.615941931616547
F0.0
sF18.724292726141705
F0.0
ssS'6'
p15
(dp16
F52.405746466227086
F270.90714089157115
sF38.48631686910266
F0.0
sF36.587185172036506
F0.0
sF25.944643195958314
F0.0
sF20.533195690071405
F0.0
sF43.27185100747408
F81.57559753200029
sF27.62073922364026
F0.0
sF25.89685283492986
F0.0
sF42.98005365948718
F83.14770362336685
sF40.165043709515075
F0.0
sF42.056759763798944
F88.12210098354508
sF97.54382745185258
F0.0
sF28.38309531864577
F0.0
sF16.431349337332946
F0.0
sF32.14517802803801
F0.0
sF44.99799463524951
F72.27571550592666
sF11.866875952430968
F0.0
sF96.97510782569353
F0.0
sF58.41303209633625
F679.6053688162765
sF29.812199415291104
F0.0
sF45.4476601752032
F69.85306862679684
sF30.829945448808488
F0.0
sF88.73971152698937
F0.0
sF27.89826683800566
F0.0
sF2.941827040267986
F0.0
sF19.188412762751163
F0.0
sF31.060258041900987
F0.0
sF8.069134313695148
F0.0
sF20.339827702203053
F0.0
sF17.065102770653155
F0.0
sF31.839677133782068
F0.0
sF38.5919772111871
F0.0
sF39.722815199479
F0.0
sF21.86496482589753
F71.76712618036838
sF47.05432389669052
F61.196904200513956
sF29.746103536558106
F0.0
sF100.0
F0.0
sF24.895610466246673
F0.0
sF30.53735130234664
F0.0
sF21.362313982981632
F0.0
sF38.73655247710845
F0.0
sF29.607023093301027
F0.0
sF30.615941931616547
F0.0
sF18.724292726141705
F97.14512761918851
ssS'9'
p17
(dp18
F52.405746466227086
F0.0
sF38.48631686910266
F0.0
sF36.587185172036506
F0.0
sF25.944643195958314
F0.0
sF20.533195690071405
F1.2610467881381058
sF43.27185100747408
F20.37869333148632
sF27.62073922364026
F0.0
sF25.89685283492986
F0.0
sF42.98005365948718
F21.95079942285288
sF40.165043709515075
F0.0
sF42.056759763798944
F26.92519678303111
sF97.54382745185258
F0.0
sF28.38309531864577
F0.0
sF16.431349337332946
F0.0
sF32.14517802803801
F0.0
sF44.99799463524951
F11.078811305412689
sF11.866875952430968
F0.0
sF96.97510782569353
F0.0
sF58.41303209633625
F0.0
sF29.812199415291104
F0.0
sF45.4476601752032
F8.656164426282869
sF30.829945448808488
F0.0
sF88.73971152698937
F0.0
sF27.89826683800566
F0.0
sF2.941827040267986
F0.0
sF19.188412762751163
F0.0
sF31.060258041900987
F0.0
sF8.069134313695148
F0.0
sF20.339827702203053
F0.0
sF17.065102770653155
F0.0
sF31.839677133782068
F0.0
sF38.5919772111871
F0.0
sF39.722815199479
F0.0
sF21.86496482589753
F0.0
sF47.05432389669052
F550.8218841479522
sF29.746103536558106
F0.0
sF100.0
F0.0
sF24.895610466246673
F0.0
sF30.53735130234664
F0.0
sF21.362313982981632
F0.0
sF38.73655247710845
F0.0
sF29.607023093301027
F0.0
sF30.615941931616547
F0.0
sF18.724292726141705
F0.0
ssS'8'
p19
(dp20
F52.405746466227086
F0.0
sF38.48631686910266
F0.0
sF36.587185172036506
F0.0
sF25.944643195958314
F0.0
sF20.533195690071405
F0.8406978587587371
sF43.27185100747408
F0.0
sF27.62073922364026
F0.0
sF25.89685283492986
F0.0
sF42.98005365948718
F0.0
sF40.165043709515075
F0.0
sF42.056759763798944
F0.0
sF97.54382745185258
F0.0
sF28.38309531864577
F0.0
sF16.431349337332946
F0.0
sF32.14517802803801
F0.0
sF44.99799463524951
F0.0
sF11.866875952430968
F0.0
sF96.97510782569353
F0.0
sF58.41303209633625
F0.0
sF29.812199415291104
F0.0
sF45.4476601752032
F0.0
sF30.829945448808488
F0.0
sF88.73971152698937
F0.0
sF27.89826683800566
F0.0
sF2.941827040267986
F0.0
sF19.188412762751163
F0.0
sF31.060258041900987
F0.0
sF8.069134313695148
F0.0
sF20.339827702203053
F0.0
sF17.065102770653155
F0.0
sF31.839677133782068
F0.0
sF38.5919772111871
F0.0
sF39.722815199479
F0.0
sF21.86496482589753
F0.0
sF47.05432389669052
F275.4109420739762
sF29.746103536558106
F0.0
sF100.0
F0.0
sF24.895610466246673
F0.0
sF30.53735130234664
F0.0
sF21.362313982981632
F0.0
sF38.73655247710845
F0.0
sF29.607023093301027
F0.0
sF30.615941931616547
F0.0
sF18.724292726141705
F0.0
ss.