(dp0
S'11'
p1
(dp2
F73.70033287806828
F0.0
sF69.7872241607056
F0.0
sF97.3431665300181
F29.301472247892427
sF75.29471690470874
F0.0
sF72.9362957391405
F0.0
sF88.44886813430917
F0.0
sF47.09014579922708
F0.0
sF98.17410427331976
F0.0
sF71.99834618560858
F0.0
sF78.0476458838265
F0.0
sF52.01349368062617
F0.0
sF98.29822768496979
F0.0
sF96.18110066903145
F0.0
sF70.5397444390334
F0.0
sF33.91021130455531
F0.0
sF53.03149962591037
F2098.1797930084776
sF96.16156348666448
F0.0
sF86.93454341638626
F0.0
sF78.70414343893626
F0.0
sF53.53336533004958
F0.0
sF52.42797671148775
F0.0
sF71.56074944068178
F0.0
sF45.30418608576906
F0.0
sF50.48277879343924
F0.0
sF71.29014261356946
F0.0
sF47.68031534252807
F0.0
sF88.28950834867535
F0.0
sF47.74673711187548
F0.0
sF46.84507246895908
F0.0
sF37.773432531388124
F0.0
sF68.84435062634128
F0.0
sF93.1552413640119
F0.0
sF65.0773908513121
F35.052919661569064
sF100.0
F0.0
sF52.347815690743474
F0.0
sF69.14424008771053
F0.0
sF36.330218750770385
F0.0
sF89.73286337150019
F0.0
sF69.7377210233117
F0.0
sF0.9170376620150522
F0.0
sF70.99175224921635
F0.0
ssS'10'
p3
(dp4
F73.70033287806828
F0.0
sF69.7872241607056
F0.0
sF97.3431665300181
F0.0
sF75.29471690470874
F0.0
sF72.9362957391405
F0.0
sF88.44886813430917
F0.0
sF47.09014579922708
F0.0
sF98.17410427331976
F0.0
sF71.99834618560858
F0.0
sF78.0476458838265
F0.0
sF52.01349368062617
F0.0
sF98.29822768496979
F0.0
sF96.18110066903145
F0.0
sF70.5397444390334
F0.0
sF33.91021130455531
F0.0
sF53.03149962591037
F0.0
sF96.16156348666448
F0.0
sF86.93454341638626
F0.0
sF78.70414343893626
F0.0
sF53.53336533004958
F2118.3854027288344
sF52.42797671148775
F0.0
sF71.56074944068178
F0.0
sF45.30418608576906
F0.0
sF50.48277879343924
F0.0
sF71.29014261356946
F0.0
sF47.68031534252807
F0.0
sF88.28950834867535
F0.0
sF47.74673711187548
F0.0
sF46.84507246895908
F0.0
sF37.773432531388124
F0.0
sF68.84435062634128
F0.0
sF93.1552413640119
F0.0
sF65.0773908513121
F0.0
sF100.0
F0.0
sF52.347815690743474
F0.0
sF69.14424008771053
F0.0
sF36.330218750770385
F0.0
sF89.73286337150019
F633.8787255636937
sF69.7377210233117
F0.0
sF0.9170376620150522
F0.0
sF70.99175224921635
F0.0
ssS'12'
p5
(dp6
F73.70033287806828
F1193.3329150247262
sF69.7872241607056
F666.9055686173996
sF97.3431665300181
F1827.2116405884192
sF75.29471690470874
F1193.3329150247262
sF72.9362957391405
F1193.3329150247262
sF88.44886813430917
F1193.3329150247262
sF47.09014579922708
F0.0
sF98.17410427331976
F1797.9101683405268
sF71.99834618560858
F1193.3329150247262
sF78.0476458838265
F1193.3329150247262
sF52.01349368062617
F0.0
sF98.29822768496979
F1797.9101683405268
sF96.18110066903145
F1827.2116405884192
sF70.5397444390334
F697.7819266160167
sF33.91021130455531
F0.0
sF53.03149962591037
F0.0
sF96.16156348666448
F1827.2116405884192
sF86.93454341638626
F1193.3329150247262
sF78.70414343893626
F1193.3329150247262
sF53.53336533004958
F2118.3854027288344
sF52.42797671148775
F0.0
sF71.56074944068178
F1193.3329150247262
sF45.30418608576906
F0.0
sF50.48277879343924
F0.0
sF71.29014261356946
F1193.3329150247262
sF47.68031534252807
F0.0
sF88.28950834867535
F1193.3329150247262
sF47.74673711187548
F0.0
sF46.84507246895908
F0.0
sF37.773432531388124
F0.0
sF68.84435062634128
F628.2189024465603
sF93.1552413640119
F1827.2116405884192
sF65.0773908513121
F473.6582853710329
sF100.0
F0.0
sF52.347815690743474
F0.0
sF69.14424008771053
F640.5235467676745
sF36.330218750770385
F0.0
sF89.73286337150019
F1827.2116405884192
sF69.7377210233117
F664.8744252233301
sF0.9170376620150522
F0.0
sF70.99175224921635
F1193.3329150247262
ssS'1'
p7
(dp8
F73.70033287806828
F0.0
sF69.7872241607056
F0.0
sF97.3431665300181
F0.0
sF75.29471690470874
F0.0
sF72.9362957391405
F0.0
sF88.44886813430917
F3033.0935789819396
sF47.09014579922708
F0.0
sF98.17410427331976
F0.0
sF71.99834618560858
F0.0
sF78.0476458838265
F0.0
sF52.01349368062617
F0.0
sF98.29822768496979
F0.0
sF96.18110066903145
F0.0
sF70.5397444390334
F0.0
sF33.91021130455531
F0.0
sF53.03149962591037
F0.0
sF96.16156348666448
F0.0
sF86.93454341638626
F0.0
sF78.70414343893626
F0.0
sF53.53336533004958
F0.0
sF52.42797671148775
F0.0
sF71.56074944068178
F0.0
sF45.30418608576906
F0.0
sF50.48277879343924
F0.0
sF71.29014261356946
F0.0
sF47.68031534252807
F0.0
sF88.28950834867535
F0.0
sF47.74673711187548
F0.0
sF46.84507246895908
F0.0
sF37.773432531388124
F0.0
sF68.84435062634128
F0.0
sF93.1552413640119
F0.0
sF65.0773908513121
F0.0
sF100.0
F0.0
sF52.347815690743474
F0.0
sF69.14424008771053
F0.0
sF36.330218750770385
F0.0
sF89.73286337150019
F0.0
sF69.7377210233117
F0.0
sF0.9170376620150522
F0.0
sF70.99175224921635
F0.0
ssS'0'
p9
(dp10
F73.70033287806828
F0.0
sF69.7872241607056
F49.42250933475487
sF97.3431665300181
F0.0
sF75.29471690470874
F0.0
sF72.9362957391405
F0.0
sF88.44886813430917
F0.0
sF47.09014579922708
F0.0
sF98.17410427331976
F0.0
sF71.99834618560858
F0.0
sF78.0476458838265
F0.0
sF52.01349368062617
F0.0
sF98.29822768496979
F0.0
sF96.18110066903145
F0.0
sF70.5397444390334
F18.546151336137687
sF33.91021130455531
F0.0
sF53.03149962591037
F2098.1797930084776
sF96.16156348666448
F0.0
sF86.93454341638626
F0.0
sF78.70414343893626
F0.0
sF53.53336533004958
F7106.537205800225
sF52.42797671148775
F0.0
sF71.56074944068178
F0.0
sF45.30418608576906
F0.0
sF50.48277879343924
F0.0
sF71.29014261356946
F0.0
sF47.68031534252807
F0.0
sF88.28950834867535
F0.0
sF47.74673711187548
F0.0
sF46.84507246895908
F0.0
sF37.773432531388124
F0.0
sF68.84435062634128
F88.10917550559407
sF93.1552413640119
F0.0
sF65.0773908513121
F277.7227122426904
sF100.0
F0.0
sF52.347815690743474
F0.0
sF69.14424008771053
F75.80453118447987
sF36.330218750770385
F0.0
sF89.73286337150019
F0.0
sF69.7377210233117
F51.453652728824245
sF0.9170376620150522
F0.0
sF70.99175224921635
F477.0048370725716
ssS'3'
p11
(dp12
F73.70033287806828
F0.0
sF69.7872241607056
F0.0
sF97.3431665300181
F0.0
sF75.29471690470874
F0.0
sF72.9362957391405
F0.0
sF88.44886813430917
F0.0
sF47.09014579922708
F0.0
sF98.17410427331976
F0.0
sF71.99834618560858
F0.0
sF78.0476458838265
F0.0
sF52.01349368062617
F0.0
sF98.29822768496979
F0.0
sF96.18110066903145
F0.0
sF70.5397444390334
F0.0
sF33.91021130455531
F0.0
sF53.03149962591037
F0.0
sF96.16156348666448
F0.0
sF86.93454341638626
F0.0
sF78.70414343893626
F0.0
sF53.53336533004958
F9224.922608529061
sF52.42797671148775
F0.0
sF71.56074944068178
F0.0
sF45.30418608576906
F0.0
sF50.48277879343924
F0.0
sF71.29014261356946
F0.0
sF47.68031534252807
F0.0
sF88.28950834867535
F0.0
sF47.74673711187548
F0.0
sF46.84507246895908
F0.0
sF37.773432531388124
F0.0
sF68.84435062634128
F0.0
sF93.1552413640119
F0.0
sF65.0773908513121
F0.0
sF100.0
F0.0
sF52.347815690743474
F0.0
sF69.14424008771053
F0.0
sF36.330218750770385
F0.0
sF89.73286337150019
F0.0
sF69.7377210233117
F0.0
sF0.9170376620150522
F0.0
sF70.99175224921635
F0.0
ssS'2'
p13
(dp14
F73.70033287806828
F0.0
sF69.7872241607056
F0.0
sF97.3431665300181
F0.0
sF75.29471690470874
F0.0
sF72.9362957391405
F0.0
sF88.44886813430917
F0.0
sF47.09014579922708
F0.0
sF98.17410427331976
F0.0
sF71.99834618560858
F0.0
sF78.0476458838265
F0.0
sF52.01349368062617
F0.0
sF98.29822768496979
F449.47754208513174
sF96.18110066903145
F0.0
sF70.5397444390334
F0.0
sF33.91021130455531
F0.0
sF53.03149962591037
F0.0
sF96.16156348666448
F0.0
sF86.93454341638626
F0.0
sF78.70414343893626
F0.0
sF53.53336533004958
F0.0
sF52.42797671148775
F0.0
sF71.56074944068178
F0.0
sF45.30418608576906
F0.0
sF50.48277879343924
F0.0
sF71.29014261356946
F0.0
sF47.68031534252807
F0.0
sF88.28950834867535
F0.0
sF47.74673711187548
F0.0
sF46.84507246895908
F0.0
sF37.773432531388124
F0.0
sF68.84435062634128
F0.0
sF93.1552413640119
F0.0
sF65.0773908513121
F0.0
sF100.0
F0.0
sF52.347815690743474
F0.0
sF69.14424008771053
F0.0
sF36.330218750770385
F0.0
sF89.73286337150019
F0.0
sF69.7377210233117
F0.0
sF0.9170376620150522
F0.0
sF70.99175224921635
F0.0
ssS'5'
p15
(dp16
F73.70033287806828
F3033.0935789819396
sF69.7872241607056
F10571.721403923815
sF97.3431665300181
F0.0
sF75.29471690470874
F3033.0935789819396
sF72.9362957391405
F3033.0935789819396
sF88.44886813430917
F3033.0935789819396
sF47.09014579922708
F0.0
sF98.17410427331976
F0.0
sF71.99834618560858
F3033.0935789819396
sF78.0476458838265
F3033.0935789819396
sF52.01349368062617
F0.0
sF98.29822768496979
F0.0
sF96.18110066903145
F0.0
sF70.5397444390334
F10571.721403923815
sF33.91021130455531
F0.0
sF53.03149962591037
F0.0
sF96.16156348666448
F0.0
sF86.93454341638626
F3033.0935789819396
sF78.70414343893626
F3033.0935789819396
sF53.53336533004958
F10947.411902730679
sF52.42797671148775
F0.0
sF71.56074944068178
F3033.0935789819396
sF45.30418608576906
F0.0
sF50.48277879343924
F0.0
sF71.29014261356946
F10571.721403923815
sF47.68031534252807
F0.0
sF88.28950834867535
F3033.0935789819396
sF47.74673711187548
F0.0
sF46.84507246895908
F0.0
sF37.773432531388124
F0.0
sF68.84435062634128
F10571.721403923815
sF93.1552413640119
F0.0
sF65.0773908513121
F10571.721403923815
sF100.0
F0.0
sF52.347815690743474
F0.0
sF69.14424008771053
F10571.721403923815
sF36.330218750770385
F0.0
sF89.73286337150019
F0.0
sF69.7377210233117
F10571.721403923815
sF0.9170376620150522
F0.0
sF70.99175224921635
F10571.721403923815
ssS'4'
p17
(dp18
F73.70033287806828
F0.0
sF69.7872241607056
F0.0
sF97.3431665300181
F0.0
sF75.29471690470874
F0.0
sF72.9362957391405
F0.0
sF88.44886813430917
F0.0
sF47.09014579922708
F0.0
sF98.17410427331976
F0.0
sF71.99834618560858
F0.0
sF78.0476458838265
F0.0
sF52.01349368062617
F0.0
sF98.29822768496979
F449.47754208513174
sF96.18110066903145
F0.0
sF70.5397444390334
F0.0
sF33.91021130455531
F0.0
sF53.03149962591037
F0.0
sF96.16156348666448
F0.0
sF86.93454341638626
F0.0
sF78.70414343893626
F0.0
sF53.53336533004958
F0.0
sF52.42797671148775
F0.0
sF71.56074944068178
F0.0
sF45.30418608576906
F0.0
sF50.48277879343924
F0.0
sF71.29014261356946
F0.0
sF47.68031534252807
F0.0
sF88.28950834867535
F0.0
sF47.74673711187548
F0.0
sF46.84507246895908
F0.0
sF37.773432531388124
F0.0
sF68.84435062634128
F0.0
sF93.1552413640119
F0.0
sF65.0773908513121
F0.0
sF100.0
F0.0
sF52.347815690743474
F0.0
sF69.14424008771053
F0.0
sF36.330218750770385
F0.0
sF89.73286337150019
F0.0
sF69.7377210233117
F0.0
sF0.9170376620150522
F0.0
sF70.99175224921635
F0.0
ssS'7'
p19
(dp20
F73.70033287806828
F0.0
sF69.7872241607056
F0.0
sF97.3431665300181
F0.0
sF75.29471690470874
F0.0
sF72.9362957391405
F0.0
sF88.44886813430917
F0.0
sF47.09014579922708
F0.0
sF98.17410427331976
F0.0
sF71.99834618560858
F0.0
sF78.0476458838265
F0.0
sF52.01349368062617
F0.0
sF98.29822768496979
F1797.9101683405268
sF96.18110066903145
F0.0
sF70.5397444390334
F0.0
sF33.91021130455531
F0.0
sF53.03149962591037
F0.0
sF96.16156348666448
F0.0
sF86.93454341638626
F0.0
sF78.70414343893626
F0.0
sF53.53336533004958
F0.0
sF52.42797671148775
F0.0
sF71.56074944068178
F0.0
sF45.30418608576906
F0.0
sF50.48277879343924
F0.0
sF71.29014261356946
F0.0
sF47.68031534252807
F0.0
sF88.28950834867535
F0.0
sF47.74673711187548
F0.0
sF46.84507246895908
F0.0
sF37.773432531388124
F0.0
sF68.84435062634128
F0.0
sF93.1552413640119
F0.0
sF65.0773908513121
F0.0
sF100.0
F0.0
sF52.347815690743474
F0.0
sF69.14424008771053
F0.0
sF36.330218750770385
F0.0
sF89.73286337150019
F0.0
sF69.7377210233117
F0.0
sF0.9170376620150522
F0.0
sF70.99175224921635
F0.0
ssS'6'
p21
(dp22
F73.70033287806828
F0.0
sF69.7872241607056
F0.0
sF97.3431665300181
F0.0
sF75.29471690470874
F0.0
sF72.9362957391405
F0.0
sF88.44886813430917
F0.0
sF47.09014579922708
F0.0
sF98.17410427331976
F0.0
sF71.99834618560858
F0.0
sF78.0476458838265
F0.0
sF52.01349368062617
F0.0
sF98.29822768496979
F449.47754208513174
sF96.18110066903145
F0.0
sF70.5397444390334
F0.0
sF33.91021130455531
F0.0
sF53.03149962591037
F0.0
sF96.16156348666448
F0.0
sF86.93454341638626
F0.0
sF78.70414343893626
F0.0
sF53.53336533004958
F0.0
sF52.42797671148775
F0.0
sF71.56074944068178
F0.0
sF45.30418608576906
F0.0
sF50.48277879343924
F0.0
sF71.29014261356946
F0.0
sF47.68031534252807
F0.0
sF88.28950834867535
F0.0
sF47.74673711187548
F0.0
sF46.84507246895908
F0.0
sF37.773432531388124
F0.0
sF68.84435062634128
F0.0
sF93.1552413640119
F0.0
sF65.0773908513121
F0.0
sF100.0
F0.0
sF52.347815690743474
F0.0
sF69.14424008771053
F0.0
sF36.330218750770385
F0.0
sF89.73286337150019
F0.0
sF69.7377210233117
F0.0
sF0.9170376620150522
F0.0
sF70.99175224921635
F0.0
ssS'9'
p23
(dp24
F73.70033287806828
F0.0
sF69.7872241607056
F0.0
sF97.3431665300181
F0.0
sF75.29471690470874
F0.0
sF72.9362957391405
F0.0
sF88.44886813430917
F0.0
sF47.09014579922708
F0.0
sF98.17410427331976
F0.0
sF71.99834618560858
F0.0
sF78.0476458838265
F0.0
sF52.01349368062617
F0.0
sF98.29822768496979
F0.0
sF96.18110066903145
F0.0
sF70.5397444390334
F0.0
sF33.91021130455531
F0.0
sF53.03149962591037
F0.0
sF96.16156348666448
F0.0
sF86.93454341638626
F0.0
sF78.70414343893626
F0.0
sF53.53336533004958
F0.0
sF52.42797671148775
F0.0
sF71.56074944068178
F0.0
sF45.30418608576906
F0.0
sF50.48277879343924
F0.0
sF71.29014261356946
F7538.6278249418765
sF47.68031534252807
F0.0
sF88.28950834867535
F0.0
sF47.74673711187548
F0.0
sF46.84507246895908
F0.0
sF37.773432531388124
F0.0
sF68.84435062634128
F0.0
sF93.1552413640119
F0.0
sF65.0773908513121
F0.0
sF100.0
F0.0
sF52.347815690743474
F0.0
sF69.14424008771053
F0.0
sF36.330218750770385
F0.0
sF89.73286337150019
F0.0
sF69.7377210233117
F0.0
sF0.9170376620150522
F0.0
sF70.99175224921635
F0.0
ss.