(dp0
S'1'
p1
(dp2
F0.552693769936119
F0.0
sF100.0
F0.0
sF87.82767327186413
F938.383672027721
sF98.78607375926642
F0.0
sF99.84413498327484
F0.0
sF82.242833859185
F0.0
sF86.18413908045213
F938.383672027721
ssS'0'
p3
(dp4
F0.552693769936119
F0.0
sF100.0
F0.0
sF87.82767327186413
F938.383672027721
sF98.78607375926642
F0.0
sF99.84413498327484
F0.0
sF82.242833859185
F0.0
sF86.18413908045213
F0.0
ssS'3'
p5
(dp6
F0.552693769936119
F0.0
sF100.0
F0.0
sF87.82767327186413
F0.0
sF98.78607375926642
F0.0
sF99.84413498327484
F0.0
sF82.242833859185
F0.0
sF86.18413908045213
F938.383672027721
ssS'2'
p7
(dp8
F0.552693769936119
F0.0
sF100.0
F0.0
sF87.82767327186413
F0.0
sF98.78607375926642
F0.0
sF99.84413498327484
F0.0
sF82.242833859185
F0.0
sF86.18413908045213
F0.0
ss.