(dp0
S'11'
p1
(dp2
F55.46800279503132
F0.0
sF13.399624034629847
F0.0
sF86.64898833146978
F0.0
sF20.358456906870508
F0.0
sF92.13696544017236
F0.0
sF19.004395331202318
F0.0
sF86.97729872140852
F0.0
sF47.654375402102914
F0.0
sF79.43497175584463
F0.0
sF73.04013549443482
F0.0
sF89.14218652166947
F0.0
sF57.183859462569046
F0.0
sF92.9588428302675
F0.0
sF34.94880940007197
F0.0
sF84.11636912056576
F0.0
sF90.449254959981
F34.01050101586771
sF100.0
F0.0
sF38.57045306057162
F0.0
sF92.43195257899498
F0.0
sF86.09812141238554
F0.0
sF94.79337296938155
F0.0
sF2.0109770323050946
F0.0
sF60.43802277087988
F0.0
sF87.19593096125648
F0.0
sF79.9960109506552
F0.0
sF89.3537078176033
F0.0
sF93.14353349522267
F0.0
sF23.983439152747145
F0.0
sF56.17723606151408
F0.0
sF87.88831642518156
F0.0
sF36.69718008266238
F0.0
sF27.562930013367748
F0.0
sF52.19631019627161
F0.0
sF87.93088971947972
F0.0
sF38.00115310843021
F0.0
sF96.51756037949488
F0.0
sF53.243200997307675
F0.0
sF82.22691129242558
F0.0
sF65.69364763145796
F0.0
sF88.23045229532943
F0.0
sF46.76583040552515
F0.0
sF25.97957964784327
F0.0
sF38.385932498830876
F0.0
sF55.968604654213266
F0.0
sF72.01646440110846
F0.0
sF95.92131140433415
F0.0
sF33.39858298908548
F0.0
sF52.37920458587425
F0.0
sF46.81232535871056
F0.0
sF90.47050670722884
F50.385458101400936
sF90.3310719467752
F0.0
sF46.90412030964997
F0.0
sF86.50120761832456
F0.0
sF74.97090371795456
F0.0
sF48.570092408137825
F0.0
sF64.85051201339003
F0.0
sF35.845168080990085
F0.0
sF43.458078188108644
F0.0
sF55.21438025221634
F0.0
sF52.209253426500624
F0.0
sF43.2548163868659
F0.0
sF84.28444405346669
F0.0
sF57.28551739587099
F0.0
sF58.57152824097817
F0.0
sF91.03947991132488
F944.4469036004423
sF91.94318502991324
F0.0
sF29.980542920690997
F0.0
sF37.801204380587215
F0.0
sF86.27321590328692
F0.0
sF90.40466685242764
F2385.8617438329065
sF65.90654777474518
F0.0
sF20.02590006283754
F0.0
sF91.59700880297702
F2005.8684654590172
sF82.73259901701341
F0.0
sF12.9414970933256
F0.0
sF39.36287579217078
F0.0
sF48.774350390362976
F0.0
sF92.97326173072845
F0.0
sF32.35564951059685
F0.0
sF91.62289003876734
F2058.737328252312
sF60.93237106024006
F0.0
sF33.68420217251255
F0.0
sF51.66511360390297
F0.0
sF49.825544608944845
F0.0
sF52.36657582858103
F0.0
sF88.78970117142694
F0.0
sF34.56852623145108
F0.0
sF29.25305897228746
F0.0
sF84.97219315435775
F0.0
sF92.93517915263575
F0.0
sF50.027053296920634
F0.0
sF88.8487236315864
F0.0
ssS'10'
p3
(dp4
F55.46800279503132
F0.0
sF13.399624034629847
F0.0
sF86.64898833146978
F0.0
sF20.358456906870508
F0.0
sF92.13696544017236
F0.0
sF19.004395331202318
F0.0
sF86.97729872140852
F0.0
sF47.654375402102914
F0.0
sF79.43497175584463
F0.0
sF73.04013549443482
F0.0
sF89.14218652166947
F0.0
sF57.183859462569046
F0.0
sF92.9588428302675
F0.0
sF34.94880940007197
F19.346403348071696
sF84.11636912056576
F0.0
sF90.449254959981
F0.0
sF100.0
F0.0
sF38.57045306057162
F0.17860861673741688
sF92.43195257899498
F0.0
sF86.09812141238554
F0.0
sF94.79337296938155
F0.0
sF2.0109770323050946
F0.0
sF60.43802277087988
F0.0
sF87.19593096125648
F0.0
sF79.9960109506552
F0.0
sF89.3537078176033
F0.0
sF93.14353349522267
F0.0
sF23.983439152747145
F0.0
sF56.17723606151408
F0.0
sF87.88831642518156
F0.0
sF36.69718008266238
F0.0
sF27.562930013367748
F0.0
sF52.19631019627161
F0.0
sF87.93088971947972
F0.0
sF38.00115310843021
F0.0
sF96.51756037949488
F0.0
sF53.243200997307675
F0.0
sF82.22691129242558
F0.0
sF65.69364763145796
F0.0
sF88.23045229532943
F0.0
sF46.76583040552515
F1181.1732200172835
sF25.97957964784327
F0.0
sF38.385932498830876
F0.05333017869239858
sF55.968604654213266
F0.0
sF72.01646440110846
F0.0
sF95.92131140433415
F513.2684493054682
sF33.39858298908548
F0.0
sF52.37920458587425
F0.0
sF46.81232535871056
F14.361547583621071
sF90.47050670722884
F0.0
sF90.3310719467752
F0.0
sF46.90412030964997
F0.0
sF86.50120761832456
F0.0
sF74.97090371795456
F0.0
sF48.570092408137825
F0.0
sF64.85051201339003
F0.0
sF35.845168080990085
F0.0
sF43.458078188108644
F274.2737837493657
sF55.21438025221634
F0.0
sF52.209253426500624
F0.0
sF43.2548163868659
F243.7954312391549
sF84.28444405346669
F0.0
sF57.28551739587099
F0.0
sF58.57152824097817
F0.0
sF91.03947991132488
F0.0
sF91.94318502991324
F0.0
sF29.980542920690997
F0.0
sF37.801204380587215
F0.0
sF86.27321590328692
F0.0
sF90.40466685242764
F0.0
sF65.90654777474518
F0.0
sF20.02590006283754
F0.0
sF91.59700880297702
F0.0
sF82.73259901701341
F0.0
sF12.9414970933256
F0.0
sF39.36287579217078
F3.2366236910950628
sF48.774350390362976
F2881.5340036823845
sF92.97326173072845
F0.0
sF32.35564951059685
F51.70805027663898
sF91.62289003876734
F0.0
sF60.93237106024006
F0.0
sF33.68420217251255
F0.0
sF51.66511360390297
F0.0
sF49.825544608944845
F0.0
sF52.36657582858103
F0.0
sF88.78970117142694
F0.0
sF34.56852623145108
F0.0
sF29.25305897228746
F0.0
sF84.97219315435775
F0.0
sF92.93517915263575
F0.0
sF50.027053296920634
F0.0
sF88.8487236315864
F0.0
ssS'13'
p5
(dp6
F55.46800279503132
F30.538998863774083
sF13.399624034629847
F0.0
sF86.64898833146978
F5.630850948480761
sF20.358456906870508
F0.0
sF92.13696544017236
F247.41708410151506
sF19.004395331202318
F0.0
sF86.97729872140852
F0.0
sF47.654375402102914
F0.0
sF79.43497175584463
F5.630850948480761
sF73.04013549443482
F5.630850948480761
sF89.14218652166947
F883.6617684391435
sF57.183859462569046
F310.1307941833642
sF92.9588428302675
F264.21998534555723
sF34.94880940007197
F38.69280669614339
sF84.11636912056576
F5.630850948480761
sF90.449254959981
F334.15108942469016
sF100.0
F0.0
sF38.57045306057162
F8.24314859041364
sF92.43195257899498
F253.37023685579845
sF86.09812141238554
F5.630850948480761
sF94.79337296938155
F485.8258946597774
sF2.0109770323050946
F0.0
sF60.43802277087988
F5.630850948480761
sF87.19593096125648
F673.3614071873388
sF79.9960109506552
F5.630850948480761
sF89.3537078176033
F748.6468727456809
sF93.14353349522267
F449.0552220086957
sF23.983439152747145
F120.0276799223978
sF56.17723606151408
F16.08281686339182
sF87.88831642518156
F11.619416518798516
sF36.69718008266238
F106.67733768909152
sF27.562930013367748
F0.0
sF52.19631019627161
F78.15516336002729
sF87.93088971947972
F12.33386947138289
sF38.00115310843021
F0.0
sF96.51756037949488
F0.0
sF53.243200997307675
F63.02520270240162
sF82.22691129242558
F5.630850948480761
sF65.69364763145796
F5.630850948480761
sF88.23045229532943
F17.361043673611015
sF46.76583040552515
F0.0
sF25.97957964784327
F0.0
sF38.385932498830876
F3.4843455543919
sF55.968604654213266
F19.546920448132674
sF72.01646440110846
F5.630850948480761
sF95.92131140433415
F513.2684493054682
sF33.39858298908548
F0.0
sF52.37920458587425
F75.4672946781898
sF46.81232535871056
F11.967956319684227
sF90.47050670722884
F330.377949558688
sF90.3310719467752
F356.213515075907
sF46.90412030964997
F0.0
sF86.50120761832456
F5.630850948480761
sF74.97090371795456
F5.630850948480761
sF48.570092408137825
F0.0
sF64.85051201339003
F5.630850948480761
sF35.845168080990085
F28.039405114083067
sF43.458078188108644
F515.6102742194669
sF55.21438025221634
F36.215924590042434
sF52.209253426500624
F77.96428129804185
sF43.2548163868659
F505.9040322374292
sF84.28444405346669
F5.630850948480761
sF57.28551739587099
F5.630850948480761
sF58.57152824097817
F5.630850948480761
sF91.03947991132488
F256.77957319835605
sF91.94318502991324
F243.938455491201
sF29.980542920690997
F0.0
sF37.801204380587215
F283.9386183856222
sF86.27321590328692
F5.630850948480761
sF90.40466685242764
F342.06782998570293
sF65.90654777474518
F5.630850948480761
sF20.02590006283754
F0.0
sF91.59700880297702
F237.84930734227095
sF82.73259901701341
F5.630850948480761
sF12.9414970933256
F0.0
sF39.36287579217078
F58.394290960541554
sF48.774350390362976
F1578.5988005224272
sF92.97326173072845
F264.52009109911154
sF32.35564951059685
F155.12415082991694
sF91.62289003876734
F238.24924672264075
sF60.93237106024006
F5.630850948480761
sF33.68420217251255
F0.0
sF51.66511360390297
F86.15217739697302
sF49.825544608944845
F116.30755451401691
sF52.36657582858103
F75.65228053941873
sF88.78970117142694
F26.746199728461562
sF34.56852623145108
F0.0
sF29.25305897228746
F0.0
sF84.97219315435775
F5.630850948480761
sF92.93517915263575
F263.72812732835564
sF50.027053296920634
F112.81801788501717
sF88.8487236315864
F1100.4950843472286
ssS'12'
p7
(dp8
F55.46800279503132
F0.0
sF13.399624034629847
F0.0
sF86.64898833146978
F0.0
sF20.358456906870508
F0.0
sF92.13696544017236
F0.0
sF19.004395331202318
F0.0
sF86.97729872140852
F0.0
sF47.654375402102914
F0.0
sF79.43497175584463
F0.0
sF73.04013549443482
F0.0
sF89.14218652166947
F0.0
sF57.183859462569046
F0.0
sF92.9588428302675
F0.0
sF34.94880940007197
F0.0
sF84.11636912056576
F0.0
sF90.449254959981
F0.0
sF100.0
F0.0
sF38.57045306057162
F0.0
sF92.43195257899498
F0.0
sF86.09812141238554
F0.0
sF94.79337296938155
F0.0
sF2.0109770323050946
F0.0
sF60.43802277087988
F0.0
sF87.19593096125648
F0.0
sF79.9960109506552
F0.0
sF89.3537078176033
F0.0
sF93.14353349522267
F0.0
sF23.983439152747145
F0.0
sF56.17723606151408
F0.0
sF87.88831642518156
F0.0
sF36.69718008266238
F0.0
sF27.562930013367748
F0.0
sF52.19631019627161
F0.0
sF87.93088971947972
F0.0
sF38.00115310843021
F0.0
sF96.51756037949488
F0.0
sF53.243200997307675
F0.0
sF82.22691129242558
F0.0
sF65.69364763145796
F0.0
sF88.23045229532943
F0.0
sF46.76583040552515
F0.0
sF25.97957964784327
F0.0
sF38.385932498830876
F0.0
sF55.968604654213266
F0.0
sF72.01646440110846
F0.0
sF95.92131140433415
F0.0
sF33.39858298908548
F0.0
sF52.37920458587425
F0.0
sF46.81232535871056
F0.0
sF90.47050670722884
F0.0
sF90.3310719467752
F0.0
sF46.90412030964997
F0.0
sF86.50120761832456
F0.0
sF74.97090371795456
F0.0
sF48.570092408137825
F0.0
sF64.85051201339003
F0.0
sF35.845168080990085
F0.0
sF43.458078188108644
F0.0
sF55.21438025221634
F0.0
sF52.209253426500624
F0.0
sF43.2548163868659
F0.0
sF84.28444405346669
F0.0
sF57.28551739587099
F0.0
sF58.57152824097817
F0.0
sF91.03947991132488
F0.0
sF91.94318502991324
F0.0
sF29.980542920690997
F0.0
sF37.801204380587215
F0.0
sF86.27321590328692
F0.0
sF90.40466685242764
F0.0
sF65.90654777474518
F0.0
sF20.02590006283754
F0.0
sF91.59700880297702
F0.0
sF82.73259901701341
F0.0
sF12.9414970933256
F0.0
sF39.36287579217078
F0.0
sF48.774350390362976
F0.0
sF92.97326173072845
F0.0
sF32.35564951059685
F0.0
sF91.62289003876734
F2058.737328252312
sF60.93237106024006
F0.0
sF33.68420217251255
F0.0
sF51.66511360390297
F0.0
sF49.825544608944845
F0.0
sF52.36657582858103
F0.0
sF88.78970117142694
F0.0
sF34.56852623145108
F0.0
sF29.25305897228746
F0.0
sF84.97219315435775
F0.0
sF92.93517915263575
F0.0
sF50.027053296920634
F0.0
sF88.8487236315864
F0.0
ssS'1'
p9
(dp10
F55.46800279503132
F73.87028529426748
sF13.399624034629847
F0.0
sF86.64898833146978
F134.60492790706462
sF20.358456906870508
F0.0
sF92.13696544017236
F9.331979622598745
sF19.004395331202318
F0.0
sF86.97729872140852
F124.22550735964089
sF47.654375402102914
F798.6551106111384
sF79.43497175584463
F2175.877660616725
sF73.04013549443482
F2856.3686895038654
sF89.14218652166947
F53.246415034499826
sF57.183859462569046
F179.17124035349343
sF92.9588428302675
F6.4528678279574985
sF34.94880940007197
F475.9223049552515
sF84.11636912056576
F334.3920343339331
sF90.449254959981
F21.943457655922586
sF100.0
F0.0
sF38.57045306057162
F3560.6205116842275
sF92.43195257899498
F7.754353757286803
sF86.09812141238554
F152.02039690853584
sF94.79337296938155
F0.9354402590499605
sF2.0109770323050946
F0.0
sF60.43802277087988
F419.51737192046767
sF87.19593096125648
F117.31352396785522
sF79.9960109506552
F1011.6957032405661
sF89.3537078176033
F46.17569001716637
sF93.14353349522267
F5.673359513774219
sF23.983439152747145
F0.0
sF56.17723606151408
F108.80360890664625
sF87.88831642518156
F95.42399463452371
sF36.69718008266238
F153.07294488532295
sF27.562930013367748
F0.0
sF52.19631019627161
F11.240250017954981
sF87.93088971947972
F94.07805451458918
sF38.00115310843021
F3921.6516373721647
sF96.51756037949488
F0.0
sF53.243200997307675
F29.32604882319233
sF82.22691129242558
F635.3707541013656
sF65.69364763145796
F868.032330624067
sF88.23045229532943
F84.607486264849
sF46.76583040552515
F798.6551106111384
sF25.97957964784327
F0.0
sF38.385932498830876
F3700.0107809562865
sF55.968604654213266
F98.47718624415332
sF72.01646440110846
F3350.3310785297426
sF95.92131140433415
F0.0
sF33.39858298908548
F53.48523395787527
sF52.37920458587425
F14.293536703626259
sF46.81232535871056
F801.0487018750753
sF90.47050670722884
F21.54401223223867
sF90.3310719467752
F23.205628342101484
sF46.90412030964997
F798.6551106111384
sF86.50120761832456
F139.27696454537724
sF74.97090371795456
F2814.3584443087525
sF48.570092408137825
F798.6551106111384
sF64.85051201339003
F808.7088164325864
sF35.845168080990085
F255.46744505229745
sF43.458078188108644
F866.4140400175376
sF55.21438025221634
F68.35305879390499
sF52.209253426500624
F11.478353408357862
sF43.2548163868659
F879.6887451239952
sF84.28444405346669
F287.2587838263175
sF57.28551739587099
F187.5460711498383
sF58.57152824097817
F305.3628717886804
sF91.03947991132488
F14.857352675979989
sF91.94318502991324
F10.424174858724143
sF29.980542920690997
F0.0
sF37.801204380587215
F73.01579133074384
sF86.27321590328692
F146.48484454011498
sF90.40466685242764
F22.3895778931679
sF65.90654777474518
F921.957413465654
sF20.02590006283754
F105.08485565408095
sF91.59700880297702
F12.444075424478678
sF82.73259901701341
F554.8178877278596
sF12.9414970933256
F0.0
sF39.36287579217078
F2996.764118999563
sF48.774350390362976
F798.6551106111384
sF92.97326173072845
F6.390206012703755
sF32.35564951059685
F0.0
sF91.62289003876734
F12.289971167648853
sF60.93237106024006
F449.7516324333482
sF33.68420217251255
F475.9223049552515
sF51.66511360390297
F7.83098673306062
sF49.825544608944845
F2964.6072891813337
sF52.36657582858103
F14.08318274473962
sF88.78970117142694
F65.37091124979024
sF34.56852623145108
F475.9223049552515
sF29.25305897228746
F0.0
sF84.97219315435775
F194.19158361236146
sF92.93517915263575
F6.556368300591643
sF50.027053296920634
F1.3283956971350817
sF88.8487236315864
F63.34070603891257
ssS'0'
p11
(dp12
F55.46800279503132
F248.66433342107274
sF13.399624034629847
F0.0
sF86.64898833146978
F0.0
sF20.358456906870508
F0.0
sF92.13696544017236
F0.0
sF19.004395331202318
F0.0
sF86.97729872140852
F0.0
sF47.654375402102914
F0.0
sF79.43497175584463
F0.0
sF73.04013549443482
F2645.083370030588
sF89.14218652166947
F0.0
sF57.183859462569046
F382.5465901438978
sF92.9588428302675
F0.0
sF34.94880940007197
F0.0
sF84.11636912056576
F0.0
sF90.449254959981
F0.0
sF100.0
F0.0
sF38.57045306057162
F34.80499411119873
sF92.43195257899498
F0.0
sF86.09812141238554
F0.0
sF94.79337296938155
F0.0
sF2.0109770323050946
F0.0
sF60.43802277087988
F337.9398911511764
sF87.19593096125648
F0.0
sF79.9960109506552
F0.0
sF89.3537078176033
F0.0
sF93.14353349522267
F0.0
sF23.983439152747145
F0.0
sF56.17723606151408
F254.05902975222267
sF87.88831642518156
F0.0
sF36.69718008266238
F0.0
sF27.562930013367748
F0.0
sF52.19631019627161
F26.053715119539103
sF87.93088971947972
F0.0
sF38.00115310843021
F0.0
sF96.51756037949488
F0.0
sF53.243200997307675
F33.9917670434421
sF82.22691129242558
F0.0
sF65.69364763145796
F777.1619691520489
sF88.23045229532943
F0.0
sF46.76583040552515
F0.0
sF25.97957964784327
F0.0
sF38.385932498830876
F0.0
sF55.968604654213266
F252.47210040088248
sF72.01646440110846
F6.29614119786045
sF95.92131140433415
F0.0
sF33.39858298908548
F0.0
sF52.37920458587425
F27.419883727813872
sF46.81232535871056
F3.5903868959052683
sF90.47050670722884
F0.0
sF90.3310719467752
F0.0
sF46.90412030964997
F0.0
sF86.50120761832456
F0.0
sF74.97090371795456
F0.0
sF48.570092408137825
F0.0
sF64.85051201339003
F218.61556692585458
sF35.845168080990085
F0.0
sF43.458078188108644
F155.85349465830356
sF55.21438025221634
F63.97883617016362
sF52.209253426500624
F26.127170964220106
sF43.2548163868659
F168.55957653762005
sF84.28444405346669
F0.0
sF57.28551739587099
F377.104478866042
sF58.57152824097817
F337.9398911511764
sF91.03947991132488
F0.0
sF91.94318502991324
F0.0
sF29.980542920690997
F0.0
sF37.801204380587215
F283.9386183856222
sF86.27321590328692
F0.0
sF90.40466685242764
F0.0
sF65.90654777474518
F751.2055874940468
sF20.02590006283754
F0.0
sF91.59700880297702
F0.0
sF82.73259901701341
F0.0
sF12.9414970933256
F0.0
sF39.36287579217078
F150.36211165055738
sF48.774350390362976
F0.0
sF92.97326173072845
F0.0
sF32.35564951059685
F0.0
sF91.62289003876734
F0.0
sF60.93237106024006
F337.9398911511764
sF33.68420217251255
F0.0
sF51.66511360390297
F22.875931319805183
sF49.825544608944845
F9.409867822806275
sF52.36657582858103
F27.323824625884562
sF88.78970117142694
F0.0
sF34.56852623145108
F0.0
sF29.25305897228746
F0.0
sF84.97219315435775
F0.0
sF92.93517915263575
F0.0
sF50.027053296920634
F11.07123616890436
sF88.8487236315864
F0.0
ssS'3'
p13
(dp14
F55.46800279503132
F458.9855920327538
sF13.399624034629847
F330.1973912305597
sF86.64898833146978
F458.9855920327538
sF20.358456906870508
F0.0
sF92.13696544017236
F0.0
sF19.004395331202318
F0.0
sF86.97729872140852
F458.9855920327538
sF47.654375402102914
F0.0
sF79.43497175584463
F458.9855920327538
sF73.04013549443482
F458.9855920327538
sF89.14218652166947
F1489.498137302619
sF57.183859462569046
F458.9855920327538
sF92.9588428302675
F0.0
sF34.94880940007197
F0.0
sF84.11636912056576
F458.9855920327538
sF90.449254959981
F901.3754603400589
sF100.0
F0.0
sF38.57045306057162
F0.0
sF92.43195257899498
F0.0
sF86.09812141238554
F458.9855920327538
sF94.79337296938155
F0.0
sF2.0109770323050946
F0.0
sF60.43802277087988
F458.9855920327538
sF87.19593096125648
F458.9855920327538
sF79.9960109506552
F458.9855920327538
sF89.3537078176033
F1709.4545123324176
sF93.14353349522267
F0.0
sF23.983439152747145
F0.0
sF56.17723606151408
F458.9855920327538
sF87.88831642518156
F877.4934678189591
sF36.69718008266238
F3.391131523303445
sF27.562930013367748
F0.0
sF52.19631019627161
F684.2890247894449
sF87.93088971947972
F493.10155678597675
sF38.00115310843021
F191.51171618101392
sF96.51756037949488
F0.0
sF53.243200997307675
F458.9855920327538
sF82.22691129242558
F458.9855920327538
sF65.69364763145796
F458.9855920327538
sF88.23045229532943
F733.1550092507453
sF46.76583040552515
F0.0
sF25.97957964784327
F0.0
sF38.385932498830876
F0.0
sF55.968604654213266
F458.9855920327538
sF72.01646440110846
F458.9855920327538
sF95.92131140433415
F0.0
sF33.39858298908548
F5.470302953044682
sF52.37920458587425
F458.9855920327538
sF46.81232535871056
F0.0
sF90.47050670722884
F890.8224034834329
sF90.3310719467752
F3168.0515257398874
sF46.90412030964997
F0.0
sF86.50120761832456
F458.9855920327538
sF74.97090371795456
F458.9855920327538
sF48.570092408137825
F0.0
sF64.85051201339003
F458.9855920327538
sF35.845168080990085
F0.0
sF43.458078188108644
F0.0
sF55.21438025221634
F458.9855920327538
sF52.209253426500624
F458.9855920327538
sF43.2548163868659
F0.0
sF84.28444405346669
F458.9855920327538
sF57.28551739587099
F458.9855920327538
sF58.57152824097817
F458.9855920327538
sF91.03947991132488
F529.960640804933
sF91.94318502991324
F0.0
sF29.980542920690997
F0.0
sF37.801204380587215
F0.0
sF86.27321590328692
F458.9855920327538
sF90.40466685242764
F3308.691566610654
sF65.90654777474518
F458.9855920327538
sF20.02590006283754
F0.0
sF91.59700880297702
F27.00751726945377
sF82.73259901701341
F458.9855920327538
sF12.9414970933256
F0.0
sF39.36287579217078
F27.11397694301039
sF48.774350390362976
F494.0003730171135
sF92.97326173072845
F0.0
sF32.35564951059685
F0.0
sF91.62289003876734
F0.0
sF60.93237106024006
F458.9855920327538
sF33.68420217251255
F0.0
sF51.66511360390297
F465.00679709773794
sF49.825544608944845
F484.5771470064093
sF52.36657582858103
F458.9855920327538
sF88.78970117142694
F1181.307196196835
sF34.56852623145108
F0.0
sF29.25305897228746
F0.0
sF84.97219315435775
F458.9855920327538
sF92.93517915263575
F0.0
sF50.027053296920634
F484.5771470064093
sF88.8487236315864
F1228.604644130885
ssS'2'
p15
(dp16
F55.46800279503132
F461.71960881598056
sF13.399624034629847
F0.0
sF86.64898833146978
F3429.490127126805
sF20.358456906870508
F0.0
sF92.13696544017236
F68.20388527578629
sF19.004395331202318
F0.0
sF86.97729872140852
F3429.490127126805
sF47.654375402102914
F0.0
sF79.43497175584463
F2651.2117553148128
sF73.04013549443482
F1773.6653448539184
sF89.14218652166947
F1447.7509674043479
sF57.183859462569046
F597.0236326439008
sF92.9588428302675
F55.181707763456274
sF34.94880940007197
F0.0
sF84.11636912056576
F3396.9288412279175
sF90.449254959981
F253.999478586367
sF100.0
F0.0
sF38.57045306057162
F0.0
sF92.43195257899498
F63.644262204377995
sF86.09812141238554
F3559.4826304444605
sF94.79337296938155
F22.531477614821387
sF2.0109770323050946
F0.0
sF60.43802277087988
F464.81595062027793
sF87.19593096125648
F3429.490127126805
sF79.9960109506552
F2740.581761926524
sF89.3537078176033
F1338.521780212469
sF93.14353349522267
F52.118700801745256
sF23.983439152747145
F0.0
sF56.17723606151408
F448.2708682382274
sF87.88831642518156
F2744.5093034206684
sF36.69718008266238
F0.0
sF27.562930013367748
F0.0
sF52.19631019627161
F249.56718973050133
sF87.93088971947972
F2291.1710099286556
sF38.00115310843021
F0.0
sF96.51756037949488
F0.0
sF53.243200997307675
F245.6725646840008
sF82.22691129242558
F3095.9501214604848
sF65.69364763145796
F876.2566243354415
sF88.23045229532943
F2046.0903832616586
sF46.76583040552515
F0.0
sF25.97957964784327
F0.0
sF38.385932498830876
F0.0
sF55.968604654213266
F452.285953561094
sF72.01646440110846
F1796.6151695965316
sF95.92131140433415
F0.0
sF33.39858298908548
F0.0
sF52.37920458587425
F247.4042119514678
sF46.81232535871056
F0.0
sF90.47050670722884
F248.02040805975616
sF90.3310719467752
F370.9686283568368
sF46.90412030964997
F0.0
sF86.50120761832456
F3429.490127126805
sF74.97090371795456
F2051.2437404692637
sF48.570092408137825
F0.0
sF64.85051201339003
F288.72999808232817
sF35.845168080990085
F0.0
sF43.458078188108644
F0.0
sF55.21438025221634
F238.56798171872353
sF52.209253426500624
F249.40421392512127
sF43.2548163868659
F0.0
sF84.28444405346669
F3423.702118395638
sF57.28551739587099
F590.6206566105998
sF58.57152824097817
F539.3007706711136
sF91.03947991132488
F124.91566795473705
sF91.94318502991324
F71.12951379027228
sF29.980542920690997
F0.0
sF37.801204380587215
F0.0
sF86.27321590328692
F3559.4826304444605
sF90.40466685242764
F267.30388214184757
sF65.90654777474518
F3480.079388364434
sF20.02590006283754
F0.0
sF91.59700880297702
F76.30044410930003
sF82.73259901701341
F3176.5029878339906
sF12.9414970933256
F0.0
sF39.36287579217078
F0.0
sF48.774350390362976
F0.0
sF92.97326173072845
F54.944382325449226
sF32.35564951059685
F0.0
sF91.62289003876734
F75.84414896151479
sF60.93237106024006
F445.08835818132764
sF33.68420217251255
F0.0
sF51.66511360390297
F18.81322103475532
sF49.825544608944845
F2963.6718895005997
sF52.36657582858103
F247.42327526222851
sF88.78970117142694
F1588.5530402607183
sF34.56852623145108
F0.0
sF29.25305897228746
F0.0
sF84.97219315435775
F3559.4826304444605
sF92.93517915263575
F55.570533434137985
sF50.027053296920634
F0.0
sF88.8487236315864
F1540.2650941370198
ssS'5'
p17
(dp18
F55.46800279503132
F196.76121181079077
sF13.399624034629847
F0.0
sF86.64898833146978
F0.0
sF20.358456906870508
F0.0
sF92.13696544017236
F7.347419176766818
sF19.004395331202318
F0.0
sF86.97729872140852
F0.0
sF47.654375402102914
F0.0
sF79.43497175584463
F0.0
sF73.04013549443482
F0.0
sF89.14218652166947
F161.25545566302796
sF57.183859462569046
F163.88224440603807
sF92.9588428302675
F6.445807239695911
sF34.94880940007197
F58.03921004421509
sF84.11636912056576
F0.0
sF90.449254959981
F5.844986632849202
sF100.0
F0.0
sF38.57045306057162
F358.67073798742615
sF92.43195257899498
F7.531515359203692
sF86.09812141238554
F0.0
sF94.79337296938155
F3.9756367718194165
sF2.0109770323050946
F0.0
sF60.43802277087988
F93.78116774884724
sF87.19593096125648
F0.0
sF79.9960109506552
F0.0
sF89.3537078176033
F113.11465965423655
sF93.14353349522267
F6.421166981253021
sF23.983439152747145
F60.0138399611989
sF56.17723606151408
F184.33811444539754
sF87.88831642518156
F0.0
sF36.69718008266238
F158.13281233662195
sF27.562930013367748
F0.0
sF52.19631019627161
F48.87420287562642
sF87.93088971947972
F0.0
sF38.00115310843021
F40.8663636178384
sF96.51756037949488
F0.0
sF53.243200997307675
F58.54603453273499
sF82.22691129242558
F0.0
sF65.69364763145796
F1205.3965426707882
sF88.23045229532943
F0.0
sF46.76583040552515
F0.0
sF25.97957964784327
F0.0
sF38.385932498830876
F258.9695443006329
sF55.968604654213266
F188.77227755162312
sF72.01646440110846
F0.0
sF95.92131140433415
F0.0
sF33.39858298908548
F0.0
sF52.37920458587425
F50.74224937110546
sF46.81232535871056
F3.5903868959052683
sF90.47050670722884
F5.844986632849202
sF90.3310719467752
F6.384340691528583
sF46.90412030964997
F0.0
sF86.50120761832456
F0.0
sF74.97090371795456
F0.0
sF48.570092408137825
F0.0
sF64.85051201339003
F0.0
sF35.845168080990085
F134.37624474465593
sF43.458078188108644
F167.6767379837481
sF55.21438025221634
F70.04233851775764
sF52.209253426500624
F49.008885196871475
sF43.2548163868659
F2164.570215851804
sF84.28444405346669
F0.0
sF57.28551739587099
F160.7831748142892
sF58.57152824097817
F133.45084782979893
sF91.03947991132488
F5.844986632849202
sF91.94318502991324
F6.808224036469498
sF29.980542920690997
F0.0
sF37.801204380587215
F38.189346152675206
sF86.27321590328692
F129.99250331765512
sF90.40466685242764
F5.844986632849202
sF65.90654777474518
F0.0
sF20.02590006283754
F0.0
sF91.59700880297702
F5.844986632849202
sF82.73259901701341
F0.0
sF12.9414970933256
F0.0
sF39.36287579217078
F753.7608556882467
sF48.774350390362976
F0.0
sF92.97326173072845
F6.4456887394024225
sF32.35564951059685
F51.70805027663898
sF91.62289003876734
F5.91700132486255
sF60.93237106024006
F83.27449967491694
sF33.68420217251255
F0.0
sF51.66511360390297
F43.020534613156386
sF49.825544608944845
F17.826518277614053
sF52.36657582858103
F50.61568871729986
sF88.78970117142694
F1.5561133130293834
sF34.56852623145108
F0.0
sF29.25305897228746
F0.0
sF84.97219315435775
F0.0
sF92.93517915263575
F6.445339113581679
sF50.027053296920634
F20.958860154882355
sF88.8487236315864
F242.8029816249293
ssS'4'
p19
(dp20
F55.46800279503132
F265.13746072889336
sF13.399624034629847
F330.1973912305597
sF86.64898833146978
F5.630850948480761
sF20.358456906870508
F120.0276799223978
sF92.13696544017236
F0.0
sF19.004395331202318
F330.1973912305597
sF86.97729872140852
F0.0
sF47.654375402102914
F0.0
sF79.43497175584463
F0.0
sF73.04013549443482
F0.0
sF89.14218652166947
F130.81803766226014
sF57.183859462569046
F0.0
sF92.9588428302675
F0.0
sF34.94880940007197
F2070.840856926556
sF84.11636912056576
F0.0
sF90.449254959981
F679.139150599833
sF100.0
F0.0
sF38.57045306057162
F0.0
sF92.43195257899498
F0.0
sF86.09812141238554
F0.0
sF94.79337296938155
F0.0
sF2.0109770323050946
F0.0
sF60.43802277087988
F0.0
sF87.19593096125648
F358.6506508254108
sF79.9960109506552
F0.0
sF89.3537078176033
F215.35268254381913
sF93.14353349522267
F180.96808112880123
sF23.983439152747145
F120.0276799223978
sF56.17723606151408
F0.0
sF87.88831642518156
F0.0
sF36.69718008266238
F6.280211057294471
sF27.562930013367748
F0.0
sF52.19631019627161
F0.0
sF87.93088971947972
F0.0
sF38.00115310843021
F319.7610867523297
sF96.51756037949488
F0.0
sF53.243200997307675
F0.0
sF82.22691129242558
F0.0
sF65.69364763145796
F0.0
sF88.23045229532943
F0.0
sF46.76583040552515
F27.11397694301039
sF25.97957964784327
F0.0
sF38.385932498830876
F0.0
sF55.968604654213266
F0.0
sF72.01646440110846
F0.0
sF95.92131140433415
F0.0
sF33.39858298908548
F2081.7814628326455
sF52.37920458587425
F0.0
sF46.81232535871056
F27.11397694301039
sF90.47050670722884
F690.4037043796186
sF90.3310719467752
F652.6998236112136
sF46.90412030964997
F0.0
sF86.50120761832456
F0.0
sF74.97090371795456
F0.0
sF48.570092408137825
F0.0
sF64.85051201339003
F0.0
sF35.845168080990085
F2070.840856926556
sF43.458078188108644
F27.11397694301039
sF55.21438025221634
F0.0
sF52.209253426500624
F0.0
sF43.2548163868659
F27.11397694301039
sF84.28444405346669
F0.0
sF57.28551739587099
F0.0
sF58.57152824097817
F0.0
sF91.03947991132488
F503.7666512329653
sF91.94318502991324
F0.0
sF29.980542920690997
F0.0
sF37.801204380587215
F0.0
sF86.27321590328692
F0.0
sF90.40466685242764
F655.531990430455
sF65.90654777474518
F0.0
sF20.02590006283754
F330.1973912305597
sF91.59700880297702
F25.70081848593187
sF82.73259901701341
F0.0
sF12.9414970933256
F0.0
sF39.36287579217078
F27.11397694301039
sF48.774350390362976
F0.0
sF92.97326173072845
F0.0
sF32.35564951059685
F155.12415082991694
sF91.62289003876734
F0.0
sF60.93237106024006
F0.0
sF33.68420217251255
F2070.840856926556
sF51.66511360390297
F0.0
sF49.825544608944845
F0.0
sF52.36657582858103
F0.0
sF88.78970117142694
F0.0
sF34.56852623145108
F2070.840856926556
sF29.25305897228746
F0.0
sF84.97219315435775
F0.0
sF92.93517915263575
F0.0
sF50.027053296920634
F0.0
sF88.8487236315864
F0.0
ssS'7'
p21
(dp22
F55.46800279503132
F528.719372689025
sF13.399624034629847
F0.0
sF86.64898833146978
F58.342713503716084
sF20.358456906870508
F0.0
sF92.13696544017236
F0.0
sF19.004395331202318
F0.0
sF86.97729872140852
F64.07278471020994
sF47.654375402102914
F0.0
sF79.43497175584463
F1065.0200141263822
sF73.04013549443482
F0.0
sF89.14218652166947
F101.8570328781707
sF57.183859462569046
F0.0
sF92.9588428302675
F0.0
sF34.94880940007197
F0.0
sF84.11636912056576
F48.7283157618608
sF90.449254959981
F39.10871831568961
sF100.0
F0.0
sF38.57045306057162
F0.0
sF92.43195257899498
F0.0
sF86.09812141238554
F48.7283157618608
sF94.79337296938155
F0.0
sF2.0109770323050946
F0.0
sF60.43802277087988
F0.0
sF87.19593096125648
F67.88861978810026
sF79.9960109506552
F9.791936638065215
sF89.3537078176033
F93.82616980142633
sF93.14353349522267
F0.0
sF23.983439152747145
F0.0
sF56.17723606151408
F0.0
sF87.88831642518156
F79.97297085409097
sF36.69718008266238
F0.0
sF27.562930013367748
F0.0
sF52.19631019627161
F68.94454441321149
sF87.93088971947972
F80.71601163287664
sF38.00115310843021
F0.0
sF96.51756037949488
F0.0
sF53.243200997307675
F52.27344773108874
sF82.22691129242558
F66.70810528041673
sF65.69364763145796
F0.0
sF88.23045229532943
F85.94434111321945
sF46.76583040552515
F1181.1732200172835
sF25.97957964784327
F0.0
sF38.385932498830876
F0.0
sF55.968604654213266
F0.0
sF72.01646440110846
F0.0
sF95.92131140433415
F0.0
sF33.39858298908548
F1926.6573120027285
sF52.37920458587425
F67.50788908465735
sF46.81232535871056
F24.84538494602059
sF90.47050670722884
F37.8297919854247
sF90.3310719467752
F46.06993659819534
sF46.90412030964997
F2.268591996989799
sF86.50120761832456
F55.763465221544465
sF74.97090371795456
F0.0
sF48.570092408137825
F0.0
sF64.85051201339003
F0.0
sF35.845168080990085
F0.0
sF43.458078188108644
F0.0
sF55.21438025221634
F5.676925726268352
sF52.209253426500624
F68.852160724248
sF43.2548163868659
F0.0
sF84.28444405346669
F48.7283157618608
sF57.28551739587099
F0.0
sF58.57152824097817
F0.0
sF91.03947991132488
F10.46592032871654
sF91.94318502991324
F0.0
sF29.980542920690997
F0.0
sF37.801204380587215
F0.0
sF86.27321590328692
F51.78427722843809
sF90.40466685242764
F41.76511968322307
sF65.90654777474518
F0.0
sF20.02590006283754
F210.1697113081619
sF91.59700880297702
F0.022081705677715453
sF82.73259901701341
F48.7283157618608
sF12.9414970933256
F0.0
sF39.36287579217078
F0.0
sF48.774350390362976
F818.3580561535484
sF92.97326173072845
F0.0
sF32.35564951059685
F0.0
sF91.62289003876734
F0.0
sF60.93237106024006
F0.0
sF33.68420217251255
F464.98169904916216
sF51.66511360390297
F72.8175765974349
sF49.825544608944845
F87.46073749134297
sF52.36657582858103
F67.73681362728931
sF88.78970117142694
F95.70503093722532
sF34.56852623145108
F0.0
sF29.25305897228746
F0.0
sF84.97219315435775
F55.4550267226804
sF92.93517915263575
F0.0
sF50.027053296920634
F85.76356788057508
sF88.8487236315864
F96.73516251350358
ssS'6'
p23
(dp24
F55.46800279503132
F0.0
sF13.399624034629847
F0.0
sF86.64898833146978
F0.0
sF20.358456906870508
F0.0
sF92.13696544017236
F0.0
sF19.004395331202318
F0.0
sF86.97729872140852
F0.0
sF47.654375402102914
F0.0
sF79.43497175584463
F0.0
sF73.04013549443482
F0.0
sF89.14218652166947
F0.0
sF57.183859462569046
F0.9384751580801267
sF92.9588428302675
F0.0
sF34.94880940007197
F0.0
sF84.11636912056576
F4.497501750201445
sF90.449254959981
F0.0
sF100.0
F0.0
sF38.57045306057162
F0.0
sF92.43195257899498
F0.0
sF86.09812141238554
F0.0
sF94.79337296938155
F0.0
sF2.0109770323050946
F0.0
sF60.43802277087988
F0.0
sF87.19593096125648
F0.0
sF79.9960109506552
F0.0
sF89.3537078176033
F0.0
sF93.14353349522267
F0.0
sF23.983439152747145
F0.0
sF56.17723606151408
F0.0
sF87.88831642518156
F0.0
sF36.69718008266238
F0.0
sF27.562930013367748
F0.0
sF52.19631019627161
F0.0
sF87.93088971947972
F0.0
sF38.00115310843021
F0.0
sF96.51756037949488
F0.0
sF53.243200997307675
F0.0
sF82.22691129242558
F0.0
sF65.69364763145796
F732.0210522004274
sF88.23045229532943
F0.0
sF46.76583040552515
F0.0
sF25.97957964784327
F0.0
sF38.385932498830876
F0.0
sF55.968604654213266
F0.0
sF72.01646440110846
F0.0
sF95.92131140433415
F0.0
sF33.39858298908548
F0.0
sF52.37920458587425
F0.0
sF46.81232535871056
F2.3935912639368455
sF90.47050670722884
F0.0
sF90.3310719467752
F0.0
sF46.90412030964997
F0.0
sF86.50120761832456
F0.0
sF74.97090371795456
F0.0
sF48.570092408137825
F0.0
sF64.85051201339003
F0.0
sF35.845168080990085
F0.0
sF43.458078188108644
F0.0
sF55.21438025221634
F0.0
sF52.209253426500624
F0.0
sF43.2548163868659
F1982.6896703615814
sF84.28444405346669
F0.0
sF57.28551739587099
F0.0
sF58.57152824097817
F0.0
sF91.03947991132488
F0.0
sF91.94318502991324
F0.0
sF29.980542920690997
F0.0
sF37.801204380587215
F0.0
sF86.27321590328692
F0.0
sF90.40466685242764
F0.0
sF65.90654777474518
F0.0
sF20.02590006283754
F0.0
sF91.59700880297702
F0.0
sF82.73259901701341
F156.2061631211274
sF12.9414970933256
F0.0
sF39.36287579217078
F0.0
sF48.774350390362976
F0.0
sF92.97326173072845
F0.0
sF32.35564951059685
F0.0
sF91.62289003876734
F0.0
sF60.93237106024006
F0.0
sF33.68420217251255
F0.0
sF51.66511360390297
F0.0
sF49.825544608944845
F0.0
sF52.36657582858103
F0.0
sF88.78970117142694
F0.0
sF34.56852623145108
F0.0
sF29.25305897228746
F0.0
sF84.97219315435775
F4.395348657196986
sF92.93517915263575
F0.0
sF50.027053296920634
F0.0
sF88.8487236315864
F1724.137349569845
ssS'9'
p25
(dp26
F55.46800279503132
F0.0
sF13.399624034629847
F0.0
sF86.64898833146978
F63.208013095245164
sF20.358456906870508
F0.0
sF92.13696544017236
F0.0
sF19.004395331202318
F0.0
sF86.97729872140852
F67.85736243617502
sF47.654375402102914
F0.0
sF79.43497175584463
F183.5486300140725
sF73.04013549443482
F1.111689058246265
sF89.14218652166947
F508.81162587781665
sF57.183859462569046
F0.0
sF92.9588428302675
F0.0
sF34.94880940007197
F0.0
sF84.11636912056576
F45.32225641150105
sF90.449254959981
F121.46485385770134
sF100.0
F0.0
sF38.57045306057162
F0.0
sF92.43195257899498
F0.0
sF86.09812141238554
F55.4069418356292
sF94.79337296938155
F0.0
sF2.0109770323050946
F0.0
sF60.43802277087988
F0.0
sF87.19593096125648
F70.9535107500704
sF79.9960109506552
F183.5486300140725
sF89.3537078176033
F511.8070729546699
sF93.14353349522267
F0.0
sF23.983439152747145
F0.0
sF56.17723606151408
F0.0
sF87.88831642518156
F80.75868901741116
sF36.69718008266238
F22.739339041995184
sF27.562930013367748
F0.0
sF52.19631019627161
F0.0
sF87.93088971947972
F81.36158835856001
sF38.00115310843021
F3851.3128635065846
sF96.51756037949488
F0.0
sF53.243200997307675
F0.0
sF82.22691129242558
F183.5486300140725
sF65.69364763145796
F0.0
sF88.23045229532943
F85.6038271279574
sF46.76583040552515
F0.0
sF25.97957964784327
F0.0
sF38.385932498830876
F0.0
sF55.968604654213266
F0.0
sF72.01646440110846
F3167.180035938692
sF95.92131140433415
F0.0
sF33.39858298908548
F0.0
sF52.37920458587425
F0.0
sF46.81232535871056
F0.0
sF90.47050670722884
F115.80898199557024
sF90.3310719467752
F153.30604184621586
sF46.90412030964997
F0.0
sF86.50120761832456
F61.115224739104185
sF74.97090371795456
F537.3657733126659
sF48.570092408137825
F0.0
sF64.85051201339003
F0.0
sF35.845168080990085
F2070.840856926556
sF43.458078188108644
F0.0
sF55.21438025221634
F0.0
sF52.209253426500624
F0.0
sF43.2548163868659
F0.0
sF84.28444405346669
F29.72265071428427
sF57.28551739587099
F0.0
sF58.57152824097817
F0.0
sF91.03947991132488
F0.0
sF91.94318502991324
F0.0
sF29.980542920690997
F0.0
sF37.801204380587215
F0.0
sF86.27321590328692
F57.88653273747279
sF90.40466685242764
F133.30448688398673
sF65.90654777474518
F0.0
sF20.02590006283754
F0.0
sF91.59700880297702
F0.0
sF82.73259901701341
F183.5486300140725
sF12.9414970933256
F0.0
sF39.36287579217078
F0.0
sF48.774350390362976
F0.0
sF92.97326173072845
F0.0
sF32.35564951059685
F0.0
sF91.62289003876734
F0.0
sF60.93237106024006
F0.0
sF33.68420217251255
F0.0
sF51.66511360390297
F0.0
sF49.825544608944845
F0.0
sF52.36657582858103
F0.0
sF88.78970117142694
F93.52359900598093
sF34.56852623145108
F0.0
sF29.25305897228746
F0.0
sF84.97219315435775
F61.29323897937847
sF92.93517915263575
F0.0
sF50.027053296920634
F0.0
sF88.8487236315864
F504.65576746940707
ssS'8'
p27
(dp28
F55.46800279503132
F0.0
sF13.399624034629847
F0.0
sF86.64898833146978
F0.0
sF20.358456906870508
F0.0
sF92.13696544017236
F0.0
sF19.004395331202318
F0.0
sF86.97729872140852
F0.0
sF47.654375402102914
F0.0
sF79.43497175584463
F0.0
sF73.04013549443482
F0.0
sF89.14218652166947
F0.0
sF57.183859462569046
F0.9384751580801267
sF92.9588428302675
F0.0
sF34.94880940007197
F0.0
sF84.11636912056576
F0.0
sF90.449254959981
F0.0
sF100.0
F0.0
sF38.57045306057162
F0.0
sF92.43195257899498
F0.0
sF86.09812141238554
F0.0
sF94.79337296938155
F0.0
sF2.0109770323050946
F0.0
sF60.43802277087988
F0.0
sF87.19593096125648
F0.0
sF79.9960109506552
F0.0
sF89.3537078176033
F0.0
sF93.14353349522267
F0.0
sF23.983439152747145
F0.0
sF56.17723606151408
F0.0
sF87.88831642518156
F0.0
sF36.69718008266238
F2.9152979329210678
sF27.562930013367748
F0.0
sF52.19631019627161
F0.0
sF87.93088971947972
F0.0
sF38.00115310843021
F136.31616873529546
sF96.51756037949488
F0.0
sF53.243200997307675
F0.0
sF82.22691129242558
F0.0
sF65.69364763145796
F0.0
sF88.23045229532943
F0.0
sF46.76583040552515
F0.0
sF25.97957964784327
F0.0
sF38.385932498830876
F0.0
sF55.968604654213266
F0.0
sF72.01646440110846
F0.0
sF95.92131140433415
F0.0
sF33.39858298908548
F0.0
sF52.37920458587425
F0.0
sF46.81232535871056
F0.0
sF90.47050670722884
F0.0
sF90.3310719467752
F0.0
sF46.90412030964997
F2.268591996989799
sF86.50120761832456
F0.0
sF74.97090371795456
F0.0
sF48.570092408137825
F0.0
sF64.85051201339003
F0.0
sF35.845168080990085
F451.4187272419308
sF43.458078188108644
F0.0
sF55.21438025221634
F0.0
sF52.209253426500624
F0.0
sF43.2548163868659
F0.0
sF84.28444405346669
F0.0
sF57.28551739587099
F0.0
sF58.57152824097817
F0.0
sF91.03947991132488
F0.0
sF91.94318502991324
F0.0
sF29.980542920690997
F0.0
sF37.801204380587215
F0.0
sF86.27321590328692
F0.0
sF90.40466685242764
F0.0
sF65.90654777474518
F2631.7914652125774
sF20.02590006283754
F0.0
sF91.59700880297702
F0.0
sF82.73259901701341
F0.0
sF12.9414970933256
F0.0
sF39.36287579217078
F0.0
sF48.774350390362976
F0.0
sF92.97326173072845
F0.0
sF32.35564951059685
F0.0
sF91.62289003876734
F0.0
sF60.93237106024006
F0.0
sF33.68420217251255
F0.0
sF51.66511360390297
F0.0
sF49.825544608944845
F0.0
sF52.36657582858103
F0.0
sF88.78970117142694
F0.0
sF34.56852623145108
F0.0
sF29.25305897228746
F0.0
sF84.97219315435775
F0.0
sF92.93517915263575
F0.0
sF50.027053296920634
F0.0
sF88.8487236315864
F0.0
ss.