(dp0
S'a'
p1
(dp2
F0.0
F0.0
sF1.0
F0.0
sF2.0
F64.0
sF3.0
F0.0
sF5.0
F0.0
sF6.0
F0.0
sF7.0
F0.0
sF8.0
F129.5
sF9.0
F225.0
sF11.0
F0.0
sF12.0
F0.0
sF14.0
F0.0
sF15.0
F381.5
sF16.0
F183.0
sF18.0
F0.0
sF19.0
F0.0
sF22.0
F0.0
sF23.0
F207.0
sF24.0
F273.0
sF25.0
F0.0
sF27.0
F0.0
sF28.0
F0.0
sF29.0
F0.0
sF30.0
F0.0
sF31.0
F0.0
sF32.0
F0.0
ssS'c'
p3
(dp4
F0.0
F0.0
sF1.0
F0.0
sF2.0
F0.0
sF3.0
F10.0
sF5.0
F140.0
sF6.0
F140.0
sF7.0
F283.5
sF8.0
F136.5
sF9.0
F232.0
sF11.0
F396.0
sF12.0
F0.0
sF14.0
F0.0
sF15.0
F0.0
sF16.0
F0.0
sF18.0
F227.0
sF19.0
F537.0
sF22.0
F117.0
sF23.0
F0.0
sF24.0
F0.0
sF25.0
F105.0
sF27.0
F234.9090909090909
sF28.0
F54.18181818181818
sF29.0
F58.0
sF30.0
F0.0
sF31.0
F0.0
sF32.0
F0.0
ssS'b'
p5
(dp6
F0.0
F0.0
sF1.0
F0.0
sF2.0
F64.0
sF3.0
F64.0
sF5.0
F86.0
sF6.0
F0.0
sF7.0
F0.0
sF8.0
F0.0
sF9.0
F0.0
sF11.0
F396.0
sF12.0
F485.0
sF14.0
F608.5
sF15.0
F381.5
sF16.0
F183.0
sF18.0
F183.0
sF19.0
F363.0
sF22.0
F207.0
sF23.0
F207.0
sF24.0
F273.0
sF25.0
F273.0
sF27.0
F53.09090909090909
sF28.0
F28.0
sF29.0
F0.0
sF30.0
F0.0
sF31.0
F0.0
sF32.0
F0.0
ssS'e'
p7
(dp8
F0.0
F0.0
sF1.0
F0.0
sF2.0
F0.0
sF3.0
F0.0
sF5.0
F0.0
sF6.0
F0.0
sF7.0
F0.0
sF8.0
F0.0
sF9.0
F224.0
sF11.0
F407.0
sF12.0
F0.0
sF14.0
F0.0
sF15.0
F0.0
sF16.0
F754.0
sF18.0
F0.0
sF19.0
F0.0
sF22.0
F0.0
sF23.0
F168.0
sF24.0
F80.0
sF25.0
F0.0
sF27.0
F0.0
sF28.0
F0.0
sF29.0
F0.0
sF30.0
F134.0
sF31.0
F0.0
sF32.0
F0.0
ssS'd'
p9
(dp10
F0.0
F0.0
sF1.0
F0.0
sF2.0
F0.0
sF3.0
F0.0
sF5.0
F0.0
sF6.0
F42.0
sF7.0
F339.5
sF8.0
F224.0
sF9.0
F224.0
sF11.0
F407.0
sF12.0
F530.0
sF14.0
F531.5
sF15.0
F353.0
sF16.0
F757.0
sF18.0
F337.0
sF19.0
F385.0
sF22.0
F168.0
sF23.0
F168.0
sF24.0
F80.0
sF25.0
F80.0
sF27.0
F200.0
sF28.0
F21.818181818181817
sF29.0
F134.0
sF30.0
F134.0
sF31.0
F0.0
sF32.0
F0.0
ss.