(dp0
S'11'
p1
(dp2
F70.8320893995261
F22.087469230162363
sF58.39264998002975
F1155.2606032225792
sF99.90926495086265
F0.0
sF59.13730644314801
F981.1200768782808
sF55.299129757202024
F0.0
sF88.84376287181365
F0.0
sF73.08569412608865
F1.9630893789999546
sF40.557407966832145
F0.0
sF74.80400971843326
F0.0
sF61.65676184746454
F1065.5650306241005
sF4.292341331544192
F0.0
sF79.03147289507643
F0.0
sF52.98648925735928
F0.0
sF51.76492403245176
F0.0
sF58.19902372623584
F1203.9840673802696
sF49.89598570734869
F0.0
sF75.19720676759528
F0.0
sF69.13768230673543
F57.56892956107345
sF74.6386055798973
F0.0
sF38.48480346296546
F0.0
sF75.59103105681858
F0.0
sF48.607816129292
F24.620407057522574
sF74.65709199735666
F0.0
sF51.309946463221046
F0.0
sF47.66884766318105
F0.0
sF77.28038969039763
F0.0
sF47.34837121915008
F0.0
sF73.20769555737274
F1.5365532386906624
sF82.08500603847828
F0.0
sF90.14661090477614
F0.0
sF84.93138748386028
F0.0
sF58.74243354280465
F1070.8840817085788
sF98.28164296300706
F0.0
sF79.46989771962158
F0.0
sF57.924940214582506
F1275.4582817984178
sF39.57106229598435
F0.0
sF69.37063416569096
F57.69579121348772
sF60.0992644160528
F785.7197422394843
sF77.63551777585009
F0.0
sF79.43647332399576
F0.0
sF78.07746582068037
F0.0
sF44.14298861436873
F0.0
sF53.19309851232062
F0.0
sF48.56635134337624
F0.0
sF83.61810786653501
F0.0
sF51.839418982888844
F0.0
sF73.83227280257381
F0.27494990756004073
sF51.337771148792214
F0.0
sF100.0
F0.0
sF70.82750479037168
F22.473904400733506
sF62.803568346090174
F1316.1856793494833
sF68.64316344428731
F69.38386858413875
sF51.779898563376214
F0.0
sF73.82852014701292
F0.2788066341528447
sF49.414397263265954
F503.5413855403917
sF65.9824505576728
F164.27831269041354
sF76.56828131952992
F0.0
sF98.92297200618913
F0.0
sF67.21937010220222
F111.0557764046085
sF79.22775704920022
F28.524956967365327
sF64.63288736923437
F295.3894424701448
sF49.20304042384861
F378.044742885137
sF44.72548613914977
F0.0
sF69.86908611676219
F48.254945038888444
sF46.991767362739246
F0.0
sF18.153630976219148
F0.0
sF49.310494682413456
F441.84749810267664
sF89.56539839723901
F0.0
sF49.01203120834529
F264.6298407321573
sF66.38669531203955
F144.74523223573692
sF39.60586144005707
F0.0
sF43.09224693979919
F0.0
ssS'10'
p3
(dp4
F70.8320893995261
F2090.149841419754
sF58.39264998002975
F0.14100133152456776
sF99.90926495086265
F0.0
sF59.13730644314801
F1.9908396178184928
sF55.299129757202024
F0.0
sF88.84376287181365
F0.0
sF73.08569412608865
F2090.149841419754
sF40.557407966832145
F0.0
sF74.80400971843326
F0.0
sF61.65676184746454
F255.20970348962464
sF4.292341331544192
F0.0
sF79.03147289507643
F0.0
sF52.98648925735928
F0.0
sF51.76492403245176
F0.0
sF58.19902372623584
F0.032395196617715505
sF49.89598570734869
F0.0
sF75.19720676759528
F0.0
sF69.13768230673543
F2133.061879674917
sF74.6386055798973
F4371.456078104259
sF38.48480346296546
F0.0
sF75.59103105681858
F0.0
sF48.607816129292
F0.0
sF74.65709199735666
F0.0
sF51.309946463221046
F0.0
sF47.66884766318105
F0.0
sF77.28038969039763
F0.0
sF47.34837121915008
F0.0
sF73.20769555737274
F2090.149841419754
sF82.08500603847828
F0.0
sF90.14661090477614
F0.0
sF84.93138748386028
F0.0
sF58.74243354280465
F0.6480775254783893
sF98.28164296300706
F0.0
sF79.46989771962158
F0.0
sF57.924940214582506
F0.0
sF39.57106229598435
F0.0
sF69.37063416569096
F2090.149841419754
sF60.0992644160528
F11.017749245661635
sF77.63551777585009
F0.0
sF79.43647332399576
F0.0
sF78.07746582068037
F0.0
sF44.14298861436873
F0.0
sF53.19309851232062
F0.0
sF48.56635134337624
F0.0
sF83.61810786653501
F0.0
sF51.839418982888844
F0.0
sF73.83227280257381
F2986.576604934832
sF51.337771148792214
F0.0
sF100.0
F0.0
sF70.82750479037168
F2090.149841419754
sF62.803568346090174
F452.55307803006593
sF68.64316344428731
F1899.9820265216322
sF51.779898563376214
F0.0
sF73.82852014701292
F2980.750983298749
sF49.414397263265954
F83.92356425673195
sF65.9824505576728
F1119.782728096185
sF76.56828131952992
F0.0
sF98.92297200618913
F0.0
sF67.21937010220222
F1443.086587284246
sF79.22775704920022
F0.0
sF64.63288736923437
F811.0823276358586
sF49.20304042384861
F0.0
sF44.72548613914977
F0.0
sF69.86908611676219
F2090.149841419754
sF46.991767362739246
F0.0
sF18.153630976219148
F0.0
sF49.310494682413456
F0.0
sF89.56539839723901
F0.0
sF49.01203120834529
F0.0
sF66.38669531203955
F1220.8864956097461
sF39.60586144005707
F0.0
sF43.09224693979919
F0.0
ssS'13'
p5
(dp6
F70.8320893995261
F618.1973589168081
sF58.39264998002975
F0.0
sF99.90926495086265
F0.0
sF59.13730644314801
F0.0
sF55.299129757202024
F0.0
sF88.84376287181365
F0.0
sF73.08569412608865
F1713.605813578107
sF40.557407966832145
F0.0
sF74.80400971843326
F0.0
sF61.65676184746454
F0.0
sF4.292341331544192
F0.0
sF79.03147289507643
F0.0
sF52.98648925735928
F0.0
sF51.76492403245176
F0.0
sF58.19902372623584
F0.0
sF49.89598570734869
F0.0
sF75.19720676759528
F0.0
sF69.13768230673543
F0.0
sF74.6386055798973
F0.0
sF38.48480346296546
F0.0
sF75.59103105681858
F0.0
sF48.607816129292
F0.0
sF74.65709199735666
F0.0
sF51.309946463221046
F0.0
sF47.66884766318105
F0.0
sF77.28038969039763
F0.0
sF47.34837121915008
F0.0
sF73.20769555737274
F1463.2819782088302
sF82.08500603847828
F0.0
sF90.14661090477614
F0.0
sF84.93138748386028
F0.0
sF58.74243354280465
F0.0
sF98.28164296300706
F0.0
sF79.46989771962158
F13.053789246283792
sF57.924940214582506
F0.0
sF39.57106229598435
F0.0
sF69.37063416569096
F0.0
sF60.0992644160528
F0.0
sF77.63551777585009
F0.0
sF79.43647332399576
F13.220633201862174
sF78.07746582068037
F0.0
sF44.14298861436873
F0.0
sF53.19309851232062
F0.0
sF48.56635134337624
F623.1755309980415
sF83.61810786653501
F0.0
sF51.839418982888844
F0.0
sF73.83227280257381
F0.0
sF51.337771148792214
F0.0
sF100.0
F0.0
sF70.82750479037168
F0.0
sF62.803568346090174
F0.0
sF68.64316344428731
F0.0
sF51.779898563376214
F0.0
sF73.82852014701292
F0.0
sF49.414397263265954
F0.0
sF65.9824505576728
F0.0
sF76.56828131952992
F0.0
sF98.92297200618913
F0.0
sF67.21937010220222
F0.0
sF79.22775704920022
F14.262478483682663
sF64.63288736923437
F0.0
sF49.20304042384861
F0.0
sF44.72548613914977
F0.0
sF69.86908611676219
F0.0
sF46.991767362739246
F0.0
sF18.153630976219148
F0.0
sF49.310494682413456
F0.0
sF89.56539839723901
F0.0
sF49.01203120834529
F0.0
sF66.38669531203955
F0.0
sF39.60586144005707
F0.0
sF43.09224693979919
F0.0
ssS'12'
p7
(dp8
F70.8320893995261
F0.0
sF58.39264998002975
F0.0
sF99.90926495086265
F0.0
sF59.13730644314801
F0.0
sF55.299129757202024
F0.0
sF88.84376287181365
F0.0
sF73.08569412608865
F0.0
sF40.557407966832145
F0.0
sF74.80400971843326
F0.0
sF61.65676184746454
F0.0
sF4.292341331544192
F0.0
sF79.03147289507643
F0.0
sF52.98648925735928
F0.0
sF51.76492403245176
F0.0
sF58.19902372623584
F0.0
sF49.89598570734869
F0.0
sF75.19720676759528
F0.0
sF69.13768230673543
F0.0
sF74.6386055798973
F0.0
sF38.48480346296546
F0.0
sF75.59103105681858
F0.0
sF48.607816129292
F0.0
sF74.65709199735666
F0.0
sF51.309946463221046
F0.0
sF47.66884766318105
F0.0
sF77.28038969039763
F0.0
sF47.34837121915008
F0.0
sF73.20769555737274
F0.0
sF82.08500603847828
F28.524956967365327
sF90.14661090477614
F0.0
sF84.93138748386028
F0.0
sF58.74243354280465
F0.0
sF98.28164296300706
F0.0
sF79.46989771962158
F2.417378474797742
sF57.924940214582506
F0.0
sF39.57106229598435
F0.0
sF69.37063416569096
F0.0
sF60.0992644160528
F0.0
sF77.63551777585009
F0.0
sF79.43647332399576
F2.083690563640979
sF78.07746582068037
F0.0
sF44.14298861436873
F0.0
sF53.19309851232062
F0.0
sF48.56635134337624
F0.0
sF83.61810786653501
F0.0
sF51.839418982888844
F0.0
sF73.83227280257381
F0.0
sF51.337771148792214
F0.0
sF100.0
F0.0
sF70.82750479037168
F0.0
sF62.803568346090174
F0.0
sF68.64316344428731
F0.0
sF51.779898563376214
F0.0
sF73.82852014701292
F4511.087709973805
sF49.414397263265954
F0.0
sF65.9824505576728
F0.0
sF76.56828131952992
F0.0
sF98.92297200618913
F0.0
sF67.21937010220222
F0.0
sF79.22775704920022
F0.0
sF64.63288736923437
F0.0
sF49.20304042384861
F0.0
sF44.72548613914977
F0.0
sF69.86908611676219
F0.0
sF46.991767362739246
F0.0
sF18.153630976219148
F0.0
sF49.310494682413456
F0.0
sF89.56539839723901
F0.0
sF49.01203120834529
F0.0
sF66.38669531203955
F0.0
sF39.60586144005707
F0.0
sF43.09224693979919
F0.0
ssS'1'
p9
(dp10
F70.8320893995261
F0.0
sF58.39264998002975
F0.0
sF99.90926495086265
F0.0
sF59.13730644314801
F0.0
sF55.299129757202024
F0.0
sF88.84376287181365
F0.0
sF73.08569412608865
F0.0
sF40.557407966832145
F0.0
sF74.80400971843326
F0.0
sF61.65676184746454
F0.0
sF4.292341331544192
F0.0
sF79.03147289507643
F0.0
sF52.98648925735928
F0.0
sF51.76492403245176
F0.0
sF58.19902372623584
F0.0
sF49.89598570734869
F0.0
sF75.19720676759528
F0.0
sF69.13768230673543
F0.0
sF74.6386055798973
F4371.456078104259
sF38.48480346296546
F0.0
sF75.59103105681858
F0.0
sF48.607816129292
F0.0
sF74.65709199735666
F0.0
sF51.309946463221046
F0.0
sF47.66884766318105
F0.0
sF77.28038969039763
F0.0
sF47.34837121915008
F0.0
sF73.20769555737274
F0.0
sF82.08500603847828
F0.0
sF90.14661090477614
F0.0
sF84.93138748386028
F0.0
sF58.74243354280465
F0.0
sF98.28164296300706
F0.0
sF79.46989771962158
F0.0
sF57.924940214582506
F0.0
sF39.57106229598435
F0.0
sF69.37063416569096
F0.0
sF60.0992644160528
F0.0
sF77.63551777585009
F0.0
sF79.43647332399576
F0.0
sF78.07746582068037
F0.0
sF44.14298861436873
F0.0
sF53.19309851232062
F0.0
sF48.56635134337624
F0.0
sF83.61810786653501
F0.0
sF51.839418982888844
F0.0
sF73.83227280257381
F0.0
sF51.337771148792214
F0.0
sF100.0
F0.0
sF70.82750479037168
F0.0
sF62.803568346090174
F0.0
sF68.64316344428731
F0.0
sF51.779898563376214
F0.0
sF73.82852014701292
F0.0
sF49.414397263265954
F0.0
sF65.9824505576728
F0.0
sF76.56828131952992
F0.0
sF98.92297200618913
F0.0
sF67.21937010220222
F0.0
sF79.22775704920022
F0.0
sF64.63288736923437
F0.0
sF49.20304042384861
F0.0
sF44.72548613914977
F0.0
sF69.86908611676219
F0.0
sF46.991767362739246
F0.0
sF18.153630976219148
F0.0
sF49.310494682413456
F0.0
sF89.56539839723901
F0.0
sF49.01203120834529
F0.0
sF66.38669531203955
F0.0
sF39.60586144005707
F0.0
sF43.09224693979919
F0.0
ssS'0'
p11
(dp12
F70.8320893995261
F953.5335840273258
sF58.39264998002975
F11.46572335189365
sF99.90926495086265
F0.0
sF59.13730644314801
F55.359566200399904
sF55.299129757202024
F0.0
sF88.84376287181365
F0.0
sF73.08569412608865
F1830.3278095197318
sF40.557407966832145
F0.0
sF74.80400971843326
F0.0
sF61.65676184746454
F1467.5110685371387
sF4.292341331544192
F0.0
sF79.03147289507643
F0.0
sF52.98648925735928
F0.0
sF51.76492403245176
F0.0
sF58.19902372623584
F6.1788338864650445
sF49.89598570734869
F0.0
sF75.19720676759528
F0.0
sF69.13768230673543
F593.1701840258222
sF74.6386055798973
F0.0
sF38.48480346296546
F0.0
sF75.59103105681858
F0.0
sF48.607816129292
F0.0
sF74.65709199735666
F0.0
sF51.309946463221046
F0.0
sF47.66884766318105
F0.0
sF77.28038969039763
F0.0
sF47.34837121915008
F0.0
sF73.20769555737274
F1890.9412824690967
sF82.08500603847828
F0.0
sF90.14661090477614
F0.0
sF84.93138748386028
F0.0
sF58.74243354280465
F27.66228714821076
sF98.28164296300706
F0.0
sF79.46989771962158
F0.0
sF57.924940214582506
F0.0
sF39.57106229598435
F0.0
sF69.37063416569096
F593.1701840258222
sF60.0992644160528
F1572.9476427426
sF77.63551777585009
F0.0
sF79.43647332399576
F0.0
sF78.07746582068037
F0.0
sF44.14298861436873
F0.0
sF53.19309851232062
F0.0
sF48.56635134337624
F0.0
sF83.61810786653501
F0.0
sF51.839418982888844
F0.0
sF73.83227280257381
F1252.3417526040016
sF51.337771148792214
F0.0
sF100.0
F0.0
sF70.82750479037168
F952.2198348681234
sF62.803568346090174
F1399.2093708561952
sF68.64316344428731
F740.4259606687812
sF51.779898563376214
F0.0
sF73.82852014701292
F1256.9828782566456
sF49.414397263265954
F167.8471285134639
sF65.9824505576728
F1123.122378013279
sF76.56828131952992
F0.0
sF98.92297200618913
F0.0
sF67.21937010220222
F933.3078997707157
sF79.22775704920022
F0.0
sF64.63288736923437
F1267.5242929422495
sF49.20304042384861
F0.0
sF44.72548613914977
F0.0
sF69.86908611676219
F689.3585311145541
sF46.991767362739246
F0.0
sF18.153630976219148
F0.0
sF49.310494682413456
F0.0
sF89.56539839723901
F0.0
sF49.01203120834529
F0.0
sF66.38669531203955
F1068.062936884051
sF39.60586144005707
F0.0
sF43.09224693979919
F0.0
ssS'3'
p13
(dp14
F70.8320893995261
F0.0
sF58.39264998002975
F1.025376651210112
sF99.90926495086265
F0.0
sF59.13730644314801
F1.025376651210112
sF55.299129757202024
F0.0
sF88.84376287181365
F0.0
sF73.08569412608865
F0.0
sF40.557407966832145
F0.0
sF74.80400971843326
F0.0
sF61.65676184746454
F0.0
sF4.292341331544192
F0.0
sF79.03147289507643
F0.0
sF52.98648925735928
F0.0
sF51.76492403245176
F0.0
sF58.19902372623584
F1.025376651210112
sF49.89598570734869
F0.0
sF75.19720676759528
F0.0
sF69.13768230673543
F0.0
sF74.6386055798973
F0.0
sF38.48480346296546
F0.0
sF75.59103105681858
F0.0
sF48.607816129292
F0.0
sF74.65709199735666
F0.0
sF51.309946463221046
F0.0
sF47.66884766318105
F0.0
sF77.28038969039763
F0.0
sF47.34837121915008
F0.0
sF73.20769555737274
F0.0
sF82.08500603847828
F0.0
sF90.14661090477614
F0.0
sF84.93138748386028
F0.0
sF58.74243354280465
F1.025376651210112
sF98.28164296300706
F0.0
sF79.46989771962158
F0.0
sF57.924940214582506
F1.4728148644165253
sF39.57106229598435
F0.0
sF69.37063416569096
F0.0
sF60.0992644160528
F0.5071868976549949
sF77.63551777585009
F0.0
sF79.43647332399576
F0.0
sF78.07746582068037
F0.0
sF44.14298861436873
F0.0
sF53.19309851232062
F0.0
sF48.56635134337624
F0.0
sF83.61810786653501
F0.0
sF51.839418982888844
F0.0
sF73.83227280257381
F0.0
sF51.337771148792214
F0.0
sF100.0
F0.0
sF70.82750479037168
F0.0
sF62.803568346090174
F0.0
sF68.64316344428731
F0.0
sF51.779898563376214
F0.0
sF73.82852014701292
F0.0
sF49.414397263265954
F167.8471285134639
sF65.9824505576728
F0.0
sF76.56828131952992
F0.0
sF98.92297200618913
F0.0
sF67.21937010220222
F3660.112554149238
sF79.22775704920022
F0.0
sF64.63288736923437
F0.0
sF49.20304042384861
F0.0
sF44.72548613914977
F0.0
sF69.86908611676219
F0.0
sF46.991767362739246
F0.0
sF18.153630976219148
F0.0
sF49.310494682413456
F0.0
sF89.56539839723901
F0.0
sF49.01203120834529
F0.0
sF66.38669531203955
F0.0
sF39.60586144005707
F0.0
sF43.09224693979919
F0.0
ssS'2'
p15
(dp16
F70.8320893995261
F2209.529303646731
sF58.39264998002975
F127.17198209495484
sF99.90926495086265
F0.0
sF59.13730644314801
F92.29899102940557
sF55.299129757202024
F0.0
sF88.84376287181365
F0.0
sF73.08569412608865
F324.06894536975926
sF40.557407966832145
F0.0
sF74.80400971843326
F0.0
sF61.65676184746454
F1291.0156567989538
sF4.292341331544192
F0.0
sF79.03147289507643
F0.0
sF52.98648925735928
F0.0
sF51.76492403245176
F0.0
sF58.19902372623584
F139.66761233285385
sF49.89598570734869
F0.0
sF75.19720676759528
F0.0
sF69.13768230673543
F1417.2961300680504
sF74.6386055798973
F0.0
sF38.48480346296546
F0.0
sF75.59103105681858
F0.0
sF48.607816129292
F478.92097848286915
sF74.65709199735666
F0.0
sF51.309946463221046
F0.0
sF47.66884766318105
F0.0
sF77.28038969039763
F0.0
sF47.34837121915008
F0.0
sF73.20769555737274
F230.3852785973948
sF82.08500603847828
F0.0
sF90.14661090477614
F0.0
sF84.93138748386028
F0.0
sF58.74243354280465
F108.22454639495672
sF98.28164296300706
F0.0
sF79.46989771962158
F0.0
sF57.924940214582506
F159.85580205972275
sF39.57106229598435
F0.0
sF69.37063416569096
F1525.478400276514
sF60.0992644160528
F1823.1076425040794
sF77.63551777585009
F0.0
sF79.43647332399576
F0.0
sF78.07746582068037
F0.0
sF44.14298861436873
F0.0
sF53.19309851232062
F0.0
sF48.56635134337624
F623.1755309980415
sF83.61810786653501
F0.0
sF51.839418982888844
F0.0
sF73.83227280257381
F0.0
sF51.337771148792214
F0.0
sF100.0
F0.0
sF70.82750479037168
F2207.165711335975
sF62.803568346090174
F898.7046239333329
sF68.64316344428731
F1195.6989506934947
sF51.779898563376214
F0.0
sF73.82852014701292
F0.0
sF49.414397263265954
F0.0
sF65.9824505576728
F665.7804236778434
sF76.56828131952992
F0.0
sF98.92297200618913
F0.0
sF67.21937010220222
F557.6877188136805
sF79.22775704920022
F0.0
sF64.63288736923437
F613.5530192120672
sF49.20304042384861
F125.49664265525465
sF44.72548613914977
F0.0
sF69.86908611676219
F1746.3506271392034
sF46.991767362739246
F0.0
sF18.153630976219148
F0.0
sF49.310494682413456
F61.69388743771509
sF89.56539839723901
F0.0
sF49.01203120834529
F238.91154480823442
sF66.38669531203955
F554.8623581815734
sF39.60586144005707
F0.0
sF43.09224693979919
F0.0
ssS'5'
p17
(dp18
F70.8320893995261
F419.1274946610047
sF58.39264998002975
F0.0
sF99.90926495086265
F0.0
sF59.13730644314801
F0.0
sF55.299129757202024
F0.0
sF88.84376287181365
F0.0
sF73.08569412608865
F37.57852215213325
sF40.557407966832145
F0.0
sF74.80400971843326
F0.0
sF61.65676184746454
F0.0
sF4.292341331544192
F0.0
sF79.03147289507643
F0.0
sF52.98648925735928
F0.0
sF51.76492403245176
F0.0
sF58.19902372623584
F0.0
sF49.89598570734869
F0.0
sF75.19720676759528
F0.0
sF69.13768230673543
F696.6427615199864
sF74.6386055798973
F0.0
sF38.48480346296546
F0.0
sF75.59103105681858
F0.0
sF48.607816129292
F0.0
sF74.65709199735666
F0.0
sF51.309946463221046
F0.0
sF47.66884766318105
F0.0
sF77.28038969039763
F0.0
sF47.34837121915008
F0.0
sF73.20769555737274
F29.41353589691572
sF82.08500603847828
F0.0
sF90.14661090477614
F0.0
sF84.93138748386028
F0.0
sF58.74243354280465
F0.0
sF98.28164296300706
F0.0
sF79.46989771962158
F0.0
sF57.924940214582506
F0.0
sF39.57106229598435
F0.0
sF69.37063416569096
F607.1307184354713
sF60.0992644160528
F0.0
sF77.63551777585009
F0.0
sF79.43647332399576
F0.0
sF78.07746582068037
F0.0
sF44.14298861436873
F0.0
sF53.19309851232062
F0.0
sF48.56635134337624
F0.0
sF83.61810786653501
F0.0
sF51.839418982888844
F0.0
sF73.83227280257381
F5.2632403305220175
sF51.337771148792214
F0.0
sF100.0
F0.0
sF70.82750479037168
F420.34987315676216
sF62.803568346090174
F0.0
sF68.64316344428731
F890.69033464178
sF51.779898563376214
F0.0
sF73.82852014701292
F5.337067883792278
sF49.414397263265954
F251.77069277019586
sF65.9824505576728
F0.0
sF76.56828131952992
F0.0
sF98.92297200618913
F0.0
sF67.21937010220222
F1595.9171963378085
sF79.22775704920022
F0.0
sF64.63288736923437
F0.0
sF49.20304042384861
F0.0
sF44.72548613914977
F0.0
sF69.86908611676219
F420.34987315676216
sF46.991767362739246
F0.0
sF18.153630976219148
F0.0
sF49.310494682413456
F0.0
sF89.56539839723901
F0.0
sF49.01203120834529
F0.0
sF66.38669531203955
F0.0
sF39.60586144005707
F0.0
sF43.09224693979919
F0.0
ssS'4'
p19
(dp20
F70.8320893995261
F457.570268715573
sF58.39264998002975
F0.0
sF99.90926495086265
F0.0
sF59.13730644314801
F0.0
sF55.299129757202024
F0.0
sF88.84376287181365
F0.0
sF73.08569412608865
F11.693869894089877
sF40.557407966832145
F0.0
sF74.80400971843326
F0.0
sF61.65676184746454
F0.0
sF4.292341331544192
F0.0
sF79.03147289507643
F0.0
sF52.98648925735928
F0.0
sF51.76492403245176
F0.0
sF58.19902372623584
F2.818161141043296
sF49.89598570734869
F0.0
sF75.19720676759528
F0.0
sF69.13768230673543
F1211.0959988867457
sF74.6386055798973
F0.0
sF38.48480346296546
F0.0
sF75.59103105681858
F0.0
sF48.607816129292
F0.0
sF74.65709199735666
F0.0
sF51.309946463221046
F0.0
sF47.66884766318105
F0.0
sF77.28038969039763
F0.0
sF47.34837121915008
F0.0
sF73.20769555737274
F6.8265875200821196
sF82.08500603847828
F0.0
sF90.14661090477614
F0.0
sF84.93138748386028
F0.0
sF58.74243354280465
F0.0
sF98.28164296300706
F0.0
sF79.46989771962158
F0.0
sF57.924940214582506
F0.0
sF39.57106229598435
F0.0
sF69.37063416569096
F1109.396658636234
sF60.0992644160528
F0.0
sF77.63551777585009
F0.0
sF79.43647332399576
F0.0
sF78.07746582068037
F0.0
sF44.14298861436873
F0.0
sF53.19309851232062
F0.0
sF48.56635134337624
F0.0
sF83.61810786653501
F0.0
sF51.839418982888844
F0.0
sF73.83227280257381
F0.0
sF51.337771148792214
F0.0
sF100.0
F0.0
sF70.82750479037168
F459.6091063569715
sF62.803568346090174
F0.0
sF68.64316344428731
F1431.0152193002493
sF51.779898563376214
F0.0
sF73.82852014701292
F0.0
sF49.414397263265954
F83.92356425673195
sF65.9824505576728
F112.2897141017244
sF76.56828131952992
F0.0
sF98.92297200618913
F0.0
sF67.21937010220222
F2064.1953578114294
sF79.22775704920022
F0.0
sF64.63288736923437
F0.0
sF49.20304042384861
F0.0
sF44.72548613914977
F0.0
sF69.86908611676219
F885.8308413308441
sF46.991767362739246
F0.0
sF18.153630976219148
F0.0
sF49.310494682413456
F0.0
sF89.56539839723901
F0.0
sF49.01203120834529
F0.0
sF66.38669531203955
F0.0
sF39.60586144005707
F0.0
sF43.09224693979919
F0.0
ssS'7'
p21
(dp22
F70.8320893995261
F887.0241041624729
sF58.39264998002975
F116.10091941782633
sF99.90926495086265
F0.0
sF59.13730644314801
F267.623901738707
sF55.299129757202024
F0.0
sF88.84376287181365
F0.0
sF73.08569412608865
F411.4368156336399
sF40.557407966832145
F0.0
sF74.80400971843326
F0.0
sF61.65676184746454
F521.7232830669536
sF4.292341331544192
F0.0
sF79.03147289507643
F0.0
sF52.98648925735928
F0.0
sF51.76492403245176
F0.0
sF58.19902372623584
F70.0013995537317
sF49.89598570734869
F0.0
sF75.19720676759528
F0.0
sF69.13768230673543
F982.5857165543819
sF74.6386055798973
F0.0
sF38.48480346296546
F0.0
sF75.59103105681858
F0.0
sF48.607816129292
F0.0
sF74.65709199735666
F0.0
sF51.309946463221046
F0.0
sF47.66884766318105
F0.0
sF77.28038969039763
F0.0
sF47.34837121915008
F0.0
sF73.20769555737274
F359.4148650798021
sF82.08500603847828
F0.0
sF90.14661090477614
F0.0
sF84.93138748386028
F0.0
sF58.74243354280465
F192.2509098921959
sF98.28164296300706
F0.0
sF79.46989771962158
F13.053789246283792
sF57.924940214582506
F0.0
sF39.57106229598435
F0.0
sF69.37063416569096
F1088.2579588432268
sF60.0992644160528
F407.724778887291
sF77.63551777585009
F0.0
sF79.43647332399576
F13.220633201862174
sF78.07746582068037
F0.0
sF44.14298861436873
F0.0
sF53.19309851232062
F0.0
sF48.56635134337624
F0.0
sF83.61810786653501
F0.0
sF51.839418982888844
F0.0
sF73.83227280257381
F126.99953032734342
sF51.337771148792214
F0.0
sF100.0
F0.0
sF70.82750479037168
F887.0537943247034
sF62.803568346090174
F534.3719903476941
sF68.64316344428731
F778.4011633705747
sF51.779898563376214
F0.0
sF73.82852014701292
F128.10634203091934
sF49.414397263265954
F503.5413855403917
sF65.9824505576728
F384.8108412554162
sF76.56828131952992
F0.0
sF98.92297200618913
F0.0
sF67.21937010220222
F300.34698735816227
sF79.22775704920022
F14.262478483682663
sF64.63288736923437
F470.225601472817
sF49.20304042384861
F0.0
sF44.72548613914977
F0.0
sF69.86908611676219
F1158.7274066630168
sF46.991767362739246
F0.0
sF18.153630976219148
F0.0
sF49.310494682413456
F0.0
sF89.56539839723901
F0.0
sF49.01203120834529
F0.0
sF66.38669531203955
F356.92794672030556
sF39.60586144005707
F0.0
sF43.09224693979919
F0.0
ssS'6'
p23
(dp24
F70.8320893995261
F0.0
sF58.39264998002975
F28.439453793611218
sF99.90926495086265
F0.0
sF59.13730644314801
F40.18630774777846
sF55.299129757202024
F0.0
sF88.84376287181365
F0.0
sF73.08569412608865
F0.0
sF40.557407966832145
F0.0
sF74.80400971843326
F0.0
sF61.65676184746454
F0.0
sF4.292341331544192
F0.0
sF79.03147289507643
F0.0
sF52.98648925735928
F0.0
sF51.76492403245176
F0.0
sF58.19902372623584
F18.715374862452354
sF49.89598570734869
F0.0
sF75.19720676759528
F0.0
sF69.13768230673543
F0.0
sF74.6386055798973
F0.0
sF38.48480346296546
F0.0
sF75.59103105681858
F0.0
sF48.607816129292
F0.0
sF74.65709199735666
F0.0
sF51.309946463221046
F0.0
sF47.66884766318105
F0.0
sF77.28038969039763
F0.0
sF47.34837121915008
F0.0
sF73.20769555737274
F0.0
sF82.08500603847828
F0.0
sF90.14661090477614
F0.0
sF84.93138748386028
F0.0
sF58.74243354280465
F38.9097805429694
sF98.28164296300706
F0.0
sF79.46989771962158
F0.0
sF57.924940214582506
F0.0
sF39.57106229598435
F0.0
sF69.37063416569096
F0.0
sF60.0992644160528
F3161.4196826531706
sF77.63551777585009
F0.0
sF79.43647332399576
F0.0
sF78.07746582068037
F0.0
sF44.14298861436873
F0.0
sF53.19309851232062
F0.0
sF48.56635134337624
F0.0
sF83.61810786653501
F0.0
sF51.839418982888844
F0.0
sF73.83227280257381
F0.0
sF51.337771148792214
F0.0
sF100.0
F0.0
sF70.82750479037168
F0.0
sF62.803568346090174
F0.0
sF68.64316344428731
F0.0
sF51.779898563376214
F0.0
sF73.82852014701292
F0.0
sF49.414397263265954
F0.0
sF65.9824505576728
F0.0
sF76.56828131952992
F0.0
sF98.92297200618913
F0.0
sF67.21937010220222
F0.0
sF79.22775704920022
F0.0
sF64.63288736923437
F0.0
sF49.20304042384861
F0.0
sF44.72548613914977
F0.0
sF69.86908611676219
F0.0
sF46.991767362739246
F0.0
sF18.153630976219148
F0.0
sF49.310494682413456
F0.0
sF89.56539839723901
F0.0
sF49.01203120834529
F0.0
sF66.38669531203955
F0.0
sF39.60586144005707
F0.0
sF43.09224693979919
F0.0
ssS'9'
p25
(dp26
F70.8320893995261
F0.0
sF58.39264998002975
F0.0
sF99.90926495086265
F0.0
sF59.13730644314801
F0.0
sF55.299129757202024
F0.0
sF88.84376287181365
F0.0
sF73.08569412608865
F0.0
sF40.557407966832145
F0.0
sF74.80400971843326
F0.0
sF61.65676184746454
F0.0
sF4.292341331544192
F0.0
sF79.03147289507643
F0.0
sF52.98648925735928
F0.0
sF51.76492403245176
F0.0
sF58.19902372623584
F0.0
sF49.89598570734869
F0.0
sF75.19720676759528
F0.0
sF69.13768230673543
F0.0
sF74.6386055798973
F0.0
sF38.48480346296546
F0.0
sF75.59103105681858
F0.0
sF48.607816129292
F119.63414545764977
sF74.65709199735666
F0.0
sF51.309946463221046
F0.0
sF47.66884766318105
F0.0
sF77.28038969039763
F0.0
sF47.34837121915008
F0.0
sF73.20769555737274
F0.0
sF82.08500603847828
F0.0
sF90.14661090477614
F0.0
sF84.93138748386028
F0.0
sF58.74243354280465
F0.0
sF98.28164296300706
F0.0
sF79.46989771962158
F0.0
sF57.924940214582506
F2840.431379853332
sF39.57106229598435
F0.0
sF69.37063416569096
F0.0
sF60.0992644160528
F0.0
sF77.63551777585009
F0.0
sF79.43647332399576
F0.0
sF78.07746582068037
F0.0
sF44.14298861436873
F0.0
sF53.19309851232062
F0.0
sF48.56635134337624
F0.0
sF83.61810786653501
F0.0
sF51.839418982888844
F0.0
sF73.83227280257381
F0.0
sF51.337771148792214
F0.0
sF100.0
F0.0
sF70.82750479037168
F0.0
sF62.803568346090174
F0.0
sF68.64316344428731
F0.0
sF51.779898563376214
F0.0
sF73.82852014701292
F0.0
sF49.414397263265954
F0.0
sF65.9824505576728
F0.0
sF76.56828131952992
F0.0
sF98.92297200618913
F0.0
sF67.21937010220222
F0.0
sF79.22775704920022
F0.0
sF64.63288736923437
F0.0
sF49.20304042384861
F0.0
sF44.72548613914977
F0.0
sF69.86908611676219
F0.0
sF46.991767362739246
F0.0
sF18.153630976219148
F0.0
sF49.310494682413456
F0.0
sF89.56539839723901
F0.0
sF49.01203120834529
F0.0
sF66.38669531203955
F0.0
sF39.60586144005707
F0.0
sF43.09224693979919
F0.0
ssS'8'
p27
(dp28
F70.8320893995261
F2531.8820599745527
sF58.39264998002975
F1403.6444811307745
sF99.90926495086265
F0.0
sF59.13730644314801
F1403.6444811307745
sF55.299129757202024
F0.0
sF88.84376287181365
F0.0
sF73.08569412608865
F2602.0450388172558
sF40.557407966832145
F0.0
sF74.80400971843326
F0.0
sF61.65676184746454
F1403.6444811307745
sF4.292341331544192
F0.0
sF79.03147289507643
F0.0
sF52.98648925735928
F0.0
sF51.76492403245176
F0.0
sF58.19902372623584
F1403.6444811307745
sF49.89598570734869
F0.0
sF75.19720676759528
F0.0
sF69.13768230673543
F2531.8820599745527
sF74.6386055798973
F0.0
sF38.48480346296546
F0.0
sF75.59103105681858
F0.0
sF48.607816129292
F119.63414545764977
sF74.65709199735666
F0.0
sF51.309946463221046
F0.0
sF47.66884766318105
F0.0
sF77.28038969039763
F0.0
sF47.34837121915008
F0.0
sF73.20769555737274
F2810.593865647498
sF82.08500603847828
F28.524956967365327
sF90.14661090477614
F0.0
sF84.93138748386028
F0.0
sF58.74243354280465
F1403.6444811307745
sF98.28164296300706
F0.0
sF79.46989771962158
F0.0
sF57.924940214582506
F1403.6444811307745
sF39.57106229598435
F0.0
sF69.37063416569096
F2531.8820599745527
sF60.0992644160528
F1403.6444811307745
sF77.63551777585009
F0.0
sF79.43647332399576
F0.0
sF78.07746582068037
F0.0
sF44.14298861436873
F0.0
sF53.19309851232062
F0.0
sF48.56635134337624
F0.0
sF83.61810786653501
F0.0
sF51.839418982888844
F0.0
sF73.83227280257381
F0.0
sF51.337771148792214
F0.0
sF100.0
F0.0
sF70.82750479037168
F2531.8820599745527
sF62.803568346090174
F1487.3397438252496
sF68.64316344428731
F2531.8820599745527
sF51.779898563376214
F0.0
sF73.82852014701292
F4511.087709973805
sF49.414397263265954
F0.0
sF65.9824505576728
F2531.8820599745527
sF76.56828131952992
F0.0
sF98.92297200618913
F0.0
sF67.21937010220222
F2531.8820599745527
sF79.22775704920022
F0.0
sF64.63288736923437
F2600.564842729172
sF49.20304042384861
F0.0
sF44.72548613914977
F0.0
sF69.86908611676219
F2531.8820599745527
sF46.991767362739246
F0.0
sF18.153630976219148
F0.0
sF49.310494682413456
F0.0
sF89.56539839723901
F0.0
sF49.01203120834529
F0.0
sF66.38669531203955
F2531.8820599745527
sF39.60586144005707
F0.0
sF43.09224693979919
F0.0
ss.