(dp0
S'1'
p1
(dp2
F52.399105148503374
F0.0
sF6.703571341911507
F0.0
sF75.78026622745247
F673.6058417655977
sF83.62919116685474
F0.0
sF56.28480941635639
F0.0
sF42.80254801228882
F106.13121264062423
sF59.34925517493079
F0.0
sF31.370672546862984
F143.61005268306565
sF48.193417313173406
F2054.934373408021
sF75.77929590398148
F673.7166278209152
sF75.61304700994472
F692.6979878743039
sF26.42284836674213
F143.61005268306565
sF59.94215142732125
F0.0
sF86.55141945299945
F0.0
sF83.50541974915897
F0.0
sF25.160559466610902
F831.6043620499468
sF19.016632877584268
F0.0
sF80.41206683462686
F1232.1825016724106
sF54.52519781573363
F0.0
sF74.82282625952246
F25.515261027571114
sF44.366589142806795
F7.586239219379208
sF90.29655014270881
F0.0
sF81.92135944064438
F0.0
sF22.67319976189898
F0.0
sF99.28829648357686
F0.0
sF35.86844093553039
F143.61005268306565
sF52.49073257040008
F0.0
sF81.68006613089698
F0.0
sF44.6890894123902
F25.04921407787167
sF93.82458263820659
F0.0
sF79.73349567329026
F891.2001163110016
sF23.863822474044515
F302.4444095938888
sF100.0
F0.0
sF54.07400826577283
F0.0
sF61.35534226382198
F75.62673094557692
sF84.87161137882042
F0.0
sF38.63106480839467
F143.61005268306565
sF59.629901380901956
F0.0
sF82.92690772790067
F0.0
sF90.53992393702464
F0.0
sF76.31767987524688
F612.2469857834614
sF30.727350161612218
F143.61005268306565
ssS'0'
p3
(dp4
F52.399105148503374
F383.6687545049087
sF6.703571341911507
F0.0
sF75.78026622745247
F255.4086643241351
sF83.62919116685474
F0.0
sF56.28480941635639
F0.0
sF42.80254801228882
F0.0
sF59.34925517493079
F0.0
sF31.370672546862984
F1118.4714896513537
sF48.193417313173406
F0.0
sF75.77929590398148
F255.25999917682554
sF75.61304700994472
F229.7886825892867
sF26.42284836674213
F756.7356035641255
sF59.94215142732125
F0.0
sF86.55141945299945
F0.0
sF83.50541974915897
F0.0
sF25.160559466610902
F833.7286195207828
sF19.016632877584268
F0.0
sF80.41206683462686
F8071.3545410485685
sF54.52519781573363
F0.0
sF74.82282625952246
F217.05284688307813
sF44.366589142806795
F0.0
sF90.29655014270881
F0.0
sF81.92135944064438
F6395.662561029611
sF22.67319976189898
F437.8027405175417
sF99.28829648357686
F0.0
sF35.86844093553039
F0.0
sF52.49073257040008
F0.0
sF81.68006613089698
F6395.662561029611
sF44.6890894123902
F0.0
sF93.82458263820659
F0.0
sF79.73349567329026
F2181.3723930504425
sF23.863822474044515
F437.8027405175417
sF100.0
F0.0
sF54.07400826577283
F0.0
sF61.35534226382198
F0.0
sF84.87161137882042
F0.0
sF38.63106480839467
F0.0
sF59.629901380901956
F0.0
sF82.92690772790067
F0.0
sF90.53992393702464
F0.0
sF76.31767987524688
F337.74685514788354
sF30.727350161612218
F350.854515304458
ssS'3'
p5
(dp6
F52.399105148503374
F0.0
sF6.703571341911507
F0.0
sF75.78026622745247
F628.6563291283302
sF83.62919116685474
F0.0
sF56.28480941635639
F0.0
sF42.80254801228882
F0.0
sF59.34925517493079
F0.0
sF31.370672546862984
F0.0
sF48.193417313173406
F0.0
sF75.77929590398148
F628.7893557590584
sF75.61304700994472
F651.5812709266021
sF26.42284836674213
F0.0
sF59.94215142732125
F0.0
sF86.55141945299945
F0.0
sF83.50541974915897
F0.0
sF25.160559466610902
F0.0
sF19.016632877584268
F0.0
sF80.41206683462686
F0.0
sF54.52519781573363
F0.0
sF74.82282625952246
F0.0
sF44.366589142806795
F0.0
sF90.29655014270881
F0.0
sF81.92135944064438
F0.0
sF22.67319976189898
F0.0
sF99.28829648357686
F0.0
sF35.86844093553039
F0.0
sF52.49073257040008
F0.0
sF81.68006613089698
F0.0
sF44.6890894123902
F0.0
sF93.82458263820659
F0.0
sF79.73349567329026
F2971.9570452310413
sF23.863822474044515
F0.0
sF100.0
F0.0
sF54.07400826577283
F1729.7114442099678
sF61.35534226382198
F0.0
sF84.87161137882042
F0.0
sF38.63106480839467
F0.0
sF59.629901380901956
F0.0
sF82.92690772790067
F0.0
sF90.53992393702464
F0.0
sF76.31767987524688
F543.1949372018872
sF30.727350161612218
F0.0
ssS'2'
p7
(dp8
F52.399105148503374
F2130.2828838929
sF6.703571341911507
F0.0
sF75.78026622745247
F226.8202985614628
sF83.62919116685474
F0.0
sF56.28480941635639
F426.04478830198417
sF42.80254801228882
F5.96690394162386
sF59.34925517493079
F473.63992697548804
sF31.370672546862984
F316.6177479008895
sF48.193417313173406
F968.2483151908855
sF75.77929590398148
F226.83968303487106
sF75.61304700994472
F233.80645583948902
sF26.42284836674213
F405.88108825966754
sF59.94215142732125
F479.7111863669628
sF86.55141945299945
F0.0
sF83.50541974915897
F0.0
sF25.160559466610902
F0.0
sF19.016632877584268
F0.0
sF80.41206683462686
F6849.550996446151
sF54.52519781573363
F386.43453983750686
sF74.82282625952246
F266.92119302667
sF44.366589142806795
F5.96690394162386
sF90.29655014270881
F70.85844238086776
sF81.92135944064438
F860.5022220544763
sF22.67319976189898
F0.0
sF99.28829648357686
F0.0
sF35.86844093553039
F5.96690394162386
sF52.49073257040008
F1767.3712530050768
sF81.68006613089698
F855.2110584260217
sF44.6890894123902
F724.7828847839063
sF93.82458263820659
F0.0
sF79.73349567329026
F1217.2567158323957
sF23.863822474044515
F0.0
sF100.0
F0.0
sF54.07400826577283
F2104.5461933083993
sF61.35534226382198
F831.2852556659716
sF84.87161137882042
F0.0
sF38.63106480839467
F5.96690394162386
sF59.629901380901956
F476.6405295936743
sF82.92690772790067
F882.5522346708851
sF90.53992393702464
F0.0
sF76.31767987524688
F227.86880150116764
sF30.727350161612218
F0.0
ssS'5'
p9
(dp10
F52.399105148503374
F0.0
sF6.703571341911507
F0.0
sF75.78026622745247
F749.0080005762751
sF83.62919116685474
F0.0
sF56.28480941635639
F0.0
sF42.80254801228882
F0.0
sF59.34925517493079
F0.0
sF31.370672546862984
F0.0
sF48.193417313173406
F0.0
sF75.77929590398148
F749.0292781668677
sF75.61304700994472
F749.0292781668677
sF26.42284836674213
F0.0
sF59.94215142732125
F0.0
sF86.55141945299945
F0.0
sF83.50541974915897
F0.0
sF25.160559466610902
F0.0
sF19.016632877584268
F0.0
sF80.41206683462686
F1527.7505747365356
sF54.52519781573363
F0.0
sF74.82282625952246
F1391.1507467061451
sF44.366589142806795
F0.0
sF90.29655014270881
F35.42922119043388
sF81.92135944064438
F22.050012616408843
sF22.67319976189898
F0.0
sF99.28829648357686
F0.0
sF35.86844093553039
F0.0
sF52.49073257040008
F0.0
sF81.68006613089698
F27.341176244863483
sF44.6890894123902
F0.0
sF93.82458263820659
F0.0
sF79.73349567329026
F285.03163590653514
sF23.863822474044515
F0.0
sF100.0
F0.0
sF54.07400826577283
F0.0
sF61.35534226382198
F0.0
sF84.87161137882042
F0.0
sF38.63106480839467
F0.0
sF59.629901380901956
F0.0
sF82.92690772790067
F0.0
sF90.53992393702464
F0.0
sF76.31767987524688
F737.2234071715859
sF30.727350161612218
F0.0
ssS'4'
p11
(dp12
F52.399105148503374
F0.0
sF6.703571341911507
F0.0
sF75.78026622745247
F0.0
sF83.62919116685474
F0.0
sF56.28480941635639
F0.0
sF42.80254801228882
F0.0
sF59.34925517493079
F0.0
sF31.370672546862984
F0.0
sF48.193417313173406
F0.0
sF75.77929590398148
F0.0
sF75.61304700994472
F0.0
sF26.42284836674213
F0.0
sF59.94215142732125
F0.0
sF86.55141945299945
F0.0
sF83.50541974915897
F0.0
sF25.160559466610902
F0.0
sF19.016632877584268
F0.0
sF80.41206683462686
F0.0
sF54.52519781573363
F0.0
sF74.82282625952246
F0.0
sF44.366589142806795
F0.0
sF90.29655014270881
F0.0
sF81.92135944064438
F0.0
sF22.67319976189898
F0.0
sF99.28829648357686
F0.0
sF35.86844093553039
F0.0
sF52.49073257040008
F0.0
sF81.68006613089698
F4708.781281185619
sF44.6890894123902
F0.0
sF93.82458263820659
F0.0
sF79.73349567329026
F0.0
sF23.863822474044515
F0.0
sF100.0
F0.0
sF54.07400826577283
F0.0
sF61.35534226382198
F0.0
sF84.87161137882042
F0.0
sF38.63106480839467
F0.0
sF59.629901380901956
F0.0
sF82.92690772790067
F0.0
sF90.53992393702464
F70.85844238086776
sF76.31767987524688
F0.0
sF30.727350161612218
F0.0
ssS'7'
p13
(dp14
F52.399105148503374
F0.0
sF6.703571341911507
F0.0
sF75.78026622745247
F602.494150074141
sF83.62919116685474
F0.0
sF56.28480941635639
F53.23824783937612
sF42.80254801228882
F0.0
sF59.34925517493079
F111.44234362394654
sF31.370672546862984
F0.0
sF48.193417313173406
F2054.934373408021
sF75.77929590398148
F602.3583404714042
sF75.61304700994472
F579.0896090333925
sF26.42284836674213
F0.0
sF59.94215142732125
F124.27205590862235
sF86.55141945299945
F0.0
sF83.50541974915897
F0.0
sF25.160559466610902
F0.0
sF19.016632877584268
F0.0
sF80.41206683462686
F4153.6084725363235
sF54.52519781573363
F25.95783276515735
sF74.82282625952246
F555.770357047752
sF44.366589142806795
F0.0
sF90.29655014270881
F0.0
sF81.92135944064438
F0.0
sF22.67319976189898
F0.0
sF99.28829648357686
F0.0
sF35.86844093553039
F0.0
sF52.49073257040008
F0.0
sF81.68006613089698
F4708.781281185619
sF44.6890894123902
F0.0
sF93.82458263820659
F0.0
sF79.73349567329026
F1533.0894685606086
sF23.863822474044515
F0.0
sF100.0
F0.0
sF54.07400826577283
F19.684323252718258
sF61.35534226382198
F158.34767137352264
sF84.87161137882042
F0.0
sF38.63106480839467
F0.0
sF59.629901380901956
F117.45186889123354
sF82.92690772790067
F0.0
sF90.53992393702464
F0.0
sF76.31767987524688
F677.7122976239564
sF30.727350161612218
F0.0
ssS'6'
p15
(dp16
F52.399105148503374
F1172.9848017790061
sF6.703571341911507
F0.0
sF75.78026622745247
F0.0
sF83.62919116685474
F0.0
sF56.28480941635639
F493.7190439694121
sF42.80254801228882
F473.209167288916
sF59.34925517493079
F216.8739657487788
sF31.370672546862984
F0.0
sF48.193417313173406
F2569.76505732607
sF75.77929590398148
F0.0
sF75.61304700994472
F0.0
sF26.42284836674213
F0.0
sF59.94215142732125
F164.8797538121241
sF86.55141945299945
F0.0
sF83.50541974915897
F0.0
sF25.160559466610902
F0.0
sF19.016632877584268
F0.0
sF80.41206683462686
F0.0
sF54.52519781573363
F658.8246131173114
sF74.82282625952246
F0.0
sF44.366589142806795
F6473.3883977895675
sF90.29655014270881
F70.85844238086776
sF81.92135944064438
F0.0
sF22.67319976189898
F0.0
sF99.28829648357686
F0.0
sF35.86844093553039
F753.3261277696008
sF52.49073257040008
F1147.1133798760861
sF81.68006613089698
F0.0
sF44.6890894123902
F6132.019769732913
sF93.82458263820659
F0.0
sF79.73349567329026
F0.0
sF23.863822474044515
F0.0
sF100.0
F0.0
sF54.07400826577283
F701.8816181395689
sF61.35534226382198
F818.1780665041254
sF84.87161137882042
F0.0
sF38.63106480839467
F188.53169239228507
sF59.629901380901956
F192.19922152451602
sF82.92690772790067
F882.5522346708851
sF90.53992393702464
F70.85844238086776
sF76.31767987524688
F0.0
sF30.727350161612218
F0.0
ssS'9'
p17
(dp18
F52.399105148503374
F0.0
sF6.703571341911507
F0.0
sF75.78026622745247
F0.0
sF83.62919116685474
F0.0
sF56.28480941635639
F0.0
sF42.80254801228882
F13.952022622337497
sF59.34925517493079
F0.0
sF31.370672546862984
F1240.4873176808544
sF48.193417313173406
F0.0
sF75.77929590398148
F0.0
sF75.61304700994472
F0.0
sF26.42284836674213
F0.0
sF59.94215142732125
F0.0
sF86.55141945299945
F0.0
sF83.50541974915897
F0.0
sF25.160559466610902
F0.0
sF19.016632877584268
F0.0
sF80.41206683462686
F0.0
sF54.52519781573363
F0.0
sF74.82282625952246
F0.0
sF44.366589142806795
F6421.6207636817535
sF90.29655014270881
F0.0
sF81.92135944064438
F6395.662561029611
sF22.67319976189898
F437.8027405175417
sF99.28829648357686
F0.0
sF35.86844093553039
F1240.4873176808544
sF52.49073257040008
F0.0
sF81.68006613089698
F0.0
sF44.6890894123902
F0.0
sF93.82458263820659
F0.0
sF79.73349567329026
F0.0
sF23.863822474044515
F0.0
sF100.0
F0.0
sF54.07400826577283
F0.0
sF61.35534226382198
F0.0
sF84.87161137882042
F0.0
sF38.63106480839467
F298.62949751896855
sF59.629901380901956
F0.0
sF82.92690772790067
F0.0
sF90.53992393702464
F0.0
sF76.31767987524688
F0.0
sF30.727350161612218
F222.8717833333336
ssS'8'
p19
(dp20
F52.399105148503374
F448.3448512300613
sF6.703571341911507
F0.0
sF75.78026622745247
F0.0
sF83.62919116685474
F0.0
sF56.28480941635639
F665.2302580763184
sF42.80254801228882
F389.3859663823597
sF59.34925517493079
F836.2761018388775
sF31.370672546862984
F0.0
sF48.193417313173406
F213.59916438501227
sF75.77929590398148
F0.0
sF75.61304700994472
F2070.733626444871
sF26.42284836674213
F0.0
sF59.94215142732125
F869.3693420993816
sF86.55141945299945
F0.0
sF83.50541974915897
F0.0
sF25.160559466610902
F0.0
sF19.016632877584268
F0.0
sF80.41206683462686
F0.0
sF54.52519781573363
F567.0153524671152
sF74.82282625952246
F1391.1507467061451
sF44.366589142806795
F38.42135020170014
sF90.29655014270881
F0.0
sF81.92135944064438
F0.0
sF22.67319976189898
F0.0
sF99.28829648357686
F0.0
sF35.86844093553039
F0.0
sF52.49073257040008
F453.4591495158957
sF81.68006613089698
F0.0
sF44.6890894123902
F362.3270033998633
sF93.82458263820659
F0.0
sF79.73349567329026
F0.0
sF23.863822474044515
F0.0
sF100.0
F0.0
sF54.07400826577283
F541.8316476963722
sF61.35534226382198
F1391.1507467061451
sF84.87161137882042
F0.0
sF38.63106480839467
F143.61005268306565
sF59.629901380901956
F851.940718177667
sF82.92690772790067
F0.0
sF90.53992393702464
F0.0
sF76.31767987524688
F0.0
sF30.727350161612218
F0.0
ss.