(dp0
S'11'
p1
(dp2
F76.25613408326426
F0.22865429017905467
sF78.61599735368887
F103.1872023488496
sF26.384956516508797
F259.2341348276874
sF50.58436622755449
F1681.5413125772745
sF1.459764019123333
F0.0
sF94.44842658032307
F0.0
sF49.865875916801414
F1985.8974081689526
sF48.7812354972746
F2490.6119568502563
sF78.2766434999888
F107.15643685007372
sF42.21583652331117
F10746.652771307898
sF9.62694201819348
F0.0
sF88.90768723178076
F265.4222735568489
sF64.24115285310292
F854.8119777553292
sF95.55933687493766
F0.0
sF25.646660662679604
F921.5202190604346
sF98.84040886409127
F0.0
sF84.6845126546607
F102.93446017252225
sF34.66964897031194
F14967.10844965907
sF90.15263431158893
F333.20702596369773
sF89.67862308404898
F307.3955152115045
sF94.14630509019389
F0.0
sF59.72287184555682
F573.553429886814
sF99.90778028072856
F0.0
sF27.181725725356543
F0.0
sF14.014807489020424
F0.0
sF19.97902814892884
F0.0
sF90.66107727651922
F360.87000092372864
sF100.0
F0.0
sF92.82070006754407
F20.80720677309065
sF53.8865236115453
F609.0919544105283
sF73.01529665269835
F3790.2793769785744
sF62.44751044443159
F13999.617115045856
sF21.52946633187183
F0.0
sF49.757297846624866
F2033.9696022066942
sF98.90567870773374
F0.0
sF71.76657980173724
F3790.2793769785744
sF20.902674031332392
F0.0
sF64.17746868896424
F13999.617115045856
sF92.54226834884797
F680.4090032704178
sF99.74579766455234
F0.0
sF60.03186493056725
F609.206915882973
sF78.50269528902437
F233.10839869524125
sF75.40674900103372
F3905.958351621141
sF60.25740610478822
F635.231217029948
sF64.5127676022176
F898.921103905651
sF98.50346056722954
F0.0
sF76.2716802819239
F0.0
sF71.46372766719841
F3790.2793769785744
sF58.79370789736376
F468.73579837299445
sF6.090739210395773
F0.0
sF94.02854934984029
F0.0
sF98.18714958697677
F0.0
sF27.021022947244298
F0.0
sF91.99086127268436
F757.9604330010353
sF72.64125210360547
F3790.2793769785744
sF85.91365256020717
F102.77998821417489
sF61.68889724506419
F13999.617115045856
sF92.93001010575419
F19.292766201328572
sF42.87346759928092
F8557.402631059524
sF82.22584772920465
F103.1872023488496
sF49.66729103280915
F2074.23309900219
sF91.74260256511519
F714.501339649916
sF55.031580082717916
F391.239509649207
sF27.31181061630828
F0.0
sF93.85988322816951
F1031.320528877594
sF18.50819896384347
F0.0
sF88.25557427063576
F229.9764267059754
sF24.271970056708554
F0.0
sF51.954676220286245
F1167.3039873172654
sF17.95400757362558
F0.0
sF42.01986209467616
F11399.050538158604
sF8.49328112688292
F0.0
sF75.00356119836167
F3790.2793769785744
sF65.8273832353197
F3790.2793769785744
sF97.33110643809776
F0.0
sF27.763692475762497
F150.29580214730683
sF44.262324786433076
F4751.785357540943
sF74.46272986460123
F3790.2793769785744
sF63.87163900169468
F13999.617115045856
sF40.98748375492021
F14967.10844965907
sF76.57268489750489
F0.0
sF96.59412019530714
F0.0
sF29.622328146132517
F14967.10844965907
sF47.21426034903212
F3259.099140848736
sF79.8860710858606
F103.1872023488496
sF54.1932492768738
F529.9083332844124
sF43.843258570915054
F5701.872998323689
sF61.496686109109234
F13999.617115045856
sF42.47628528587827
F9879.620310688948
sF82.87673500945058
F103.1872023488496
sF42.283521465908684
F10521.329979413047
sF53.353010008596115
F738.2751526897108
sF70.28838714663829
F3790.2793769785744
sF72.61989968433473
F3790.2793769785744
sF65.01818474651861
F4257.960813222884
sF25.85455996043412
F0.0
sF49.22019812997699
F2434.9169141561606
sF82.96102620376915
F197.9907340376452
sF98.52679504088286
F0.0
sF98.19805641625972
F0.0
sF94.76913205396639
F0.0
sF29.02704614398849
F3902.9847870192825
sF48.38491744906531
F2684.977094789892
sF78.3219907741773
F109.47452777765612
sF75.53256119240517
F0.0
sF80.88153049081585
F103.1872023488496
sF80.62512187645913
F103.1872023488496
ssS'10'
p3
(dp4
F76.25613408326426
F0.0
sF78.61599735368887
F0.0
sF26.384956516508797
F0.0
sF50.58436622755449
F0.0
sF1.459764019123333
F0.0
sF94.44842658032307
F28.5153608779113
sF49.865875916801414
F0.0
sF48.7812354972746
F0.0
sF78.2766434999888
F0.0
sF42.21583652331117
F0.0
sF9.62694201819348
F0.0
sF88.90768723178076
F0.0
sF64.24115285310292
F0.0
sF95.55933687493766
F2.7783535069821186
sF25.646660662679604
F0.0
sF98.84040886409127
F0.0
sF84.6845126546607
F0.0
sF34.66964897031194
F0.0
sF90.15263431158893
F0.0
sF89.67862308404898
F0.0
sF94.14630509019389
F1874.6885959263582
sF59.72287184555682
F7574.392062518706
sF99.90778028072856
F0.0
sF27.181725725356543
F0.0
sF14.014807489020424
F0.0
sF19.97902814892884
F0.0
sF90.66107727651922
F0.0
sF100.0
F0.0
sF92.82070006754407
F0.0
sF53.8865236115453
F0.0
sF73.01529665269835
F0.0
sF62.44751044443159
F0.0
sF21.52946633187183
F0.0
sF49.757297846624866
F0.0
sF98.90567870773374
F0.0
sF71.76657980173724
F0.0
sF20.902674031332392
F0.0
sF64.17746868896424
F0.0
sF92.54226834884797
F0.0
sF99.74579766455234
F0.0
sF60.03186493056725
F0.0
sF78.50269528902437
F0.0
sF75.40674900103372
F0.0
sF60.25740610478822
F0.0
sF64.5127676022176
F0.0
sF98.50346056722954
F0.0
sF76.2716802819239
F0.0
sF71.46372766719841
F0.0
sF58.79370789736376
F10637.663273581968
sF6.090739210395773
F0.0
sF94.02854934984029
F0.0
sF98.18714958697677
F0.0
sF27.021022947244298
F0.0
sF91.99086127268436
F0.0
sF72.64125210360547
F0.0
sF85.91365256020717
F0.0
sF61.68889724506419
F12535.602125727219
sF92.93001010575419
F0.0
sF42.87346759928092
F0.0
sF82.22584772920465
F0.0
sF49.66729103280915
F0.0
sF91.74260256511519
F0.0
sF55.031580082717916
F0.0
sF27.31181061630828
F0.0
sF93.85988322816951
F0.0
sF18.50819896384347
F0.0
sF88.25557427063576
F0.0
sF24.271970056708554
F0.0
sF51.954676220286245
F0.0
sF17.95400757362558
F0.0
sF42.01986209467616
F0.0
sF8.49328112688292
F0.0
sF75.00356119836167
F0.0
sF65.8273832353197
F0.0
sF97.33110643809776
F9.007880395111595
sF27.763692475762497
F0.0
sF44.262324786433076
F0.0
sF74.46272986460123
F0.0
sF63.87163900169468
F0.0
sF40.98748375492021
F0.0
sF76.57268489750489
F0.0
sF96.59412019530714
F6.416642961583778
sF29.622328146132517
F0.0
sF47.21426034903212
F0.0
sF79.8860710858606
F0.0
sF54.1932492768738
F0.0
sF43.843258570915054
F0.0
sF61.496686109109234
F11367.75542275993
sF42.47628528587827
F0.0
sF82.87673500945058
F0.0
sF42.283521465908684
F0.0
sF53.353010008596115
F0.0
sF70.28838714663829
F0.0
sF72.61989968433473
F0.0
sF65.01818474651861
F0.0
sF25.85455996043412
F0.0
sF49.22019812997699
F0.0
sF82.96102620376915
F0.0
sF98.52679504088286
F0.0
sF98.19805641625972
F0.0
sF94.76913205396639
F80.33142213208828
sF29.02704614398849
F0.0
sF48.38491744906531
F0.0
sF78.3219907741773
F0.0
sF75.53256119240517
F0.0
sF80.88153049081585
F0.0
sF80.62512187645913
F0.0
ssS'13'
p5
(dp6
F76.25613408326426
F1182.282112535529
sF78.61599735368887
F4806.91817389097
sF26.384956516508797
F846.7135564173868
sF50.58436622755449
F501.02683263407323
sF1.459764019123333
F0.0
sF94.44842658032307
F0.0
sF49.865875916801414
F526.2178287632757
sF48.7812354972746
F634.2009773961366
sF78.2766434999888
F67.1762786670613
sF42.21583652331117
F15173.928589690579
sF9.62694201819348
F0.0
sF88.90768723178076
F0.0
sF64.24115285310292
F1424.4131335512902
sF95.55933687493766
F0.0
sF25.646660662679604
F550.8644726788071
sF98.84040886409127
F0.0
sF84.6845126546607
F0.0
sF34.66964897031194
F15173.928589690579
sF90.15263431158893
F0.0
sF89.67862308404898
F0.0
sF94.14630509019389
F0.0
sF59.72287184555682
F3002.953393613345
sF99.90778028072856
F0.0
sF27.181725725356543
F1189.0729017797496
sF14.014807489020424
F0.0
sF19.97902814892884
F0.0
sF90.66107727651922
F0.0
sF100.0
F0.0
sF92.82070006754407
F0.0
sF53.8865236115453
F510.6666752221106
sF73.01529665269835
F635.0196757657516
sF62.44751044443159
F1748.9668309155336
sF21.52946633187183
F0.0
sF49.757297846624866
F529.7671371331545
sF98.90567870773374
F0.0
sF71.76657980173724
F721.133009409646
sF20.902674031332392
F0.0
sF64.17746868896424
F1434.1675184300286
sF92.54226834884797
F0.0
sF99.74579766455234
F0.0
sF60.03186493056725
F2500.4310419874973
sF78.50269528902437
F22.696888256981573
sF75.40674900103372
F433.60065279234635
sF60.25740610478822
F2386.0550158602978
sF64.5127676022176
F1384.4830412799715
sF98.50346056722954
F0.0
sF76.2716802819239
F414.8189710609345
sF71.46372766719841
F739.5977252235054
sF58.79370789736376
F4424.619485292277
sF6.090739210395773
F0.0
sF94.02854934984029
F0.0
sF98.18714958697677
F0.0
sF27.021022947244298
F1104.474676923071
sF91.99086127268436
F0.0
sF72.64125210360547
F662.499549330291
sF85.91365256020717
F0.0
sF61.68889724506419
F1923.9824732007346
sF92.93001010575419
F0.0
sF42.87346759928092
F1811.4699941495585
sF82.22584772920465
F0.0
sF49.66729103280915
F685.8303649260571
sF91.74260256511519
F0.0
sF55.031580082717916
F12206.736566144804
sF27.31181061630828
F1407.7860374227785
sF93.85988322816951
F0.0
sF18.50819896384347
F0.0
sF88.25557427063576
F0.0
sF24.271970056708554
F962.7084641749188
sF51.954676220286245
F453.70707906206974
sF17.95400757362558
F0.0
sF42.01986209467616
F15173.928589690579
sF8.49328112688292
F0.0
sF75.00356119836167
F464.75469563716933
sF65.8273832353197
F2012.8903086642756
sF97.33110643809776
F0.0
sF27.763692475762497
F2213.638711542003
sF44.262324786433076
F1560.256639464726
sF74.46272986460123
F515.1010212512595
sF63.87163900169468
F1483.0054041332996
sF40.98748375492021
F15173.928589690579
sF76.57268489750489
F368.00133262986674
sF96.59412019530714
F0.0
sF29.622328146132517
F5528.1920485360615
sF47.21426034903212
F1304.990447183219
sF79.8860710858606
F0.0
sF54.1932492768738
F12188.168997143144
sF43.843258570915054
F2858.1598630974263
sF61.496686109109234
F2032.5588212446376
sF42.47628528587827
F4612.2124215830045
sF82.87673500945058
F0.0
sF42.283521465908684
F15173.928589690579
sF53.353010008596115
F438.9489054508352
sF70.28838714663829
F978.3135609355613
sF72.61989968433473
F664.0247564484059
sF65.01818474651861
F1316.944522837943
sF25.85455996043412
F634.1736453249227
sF49.22019812997699
F592.0228550299541
sF82.96102620376915
F0.0
sF98.52679504088286
F0.0
sF98.19805641625972
F0.0
sF94.76913205396639
F0.0
sF29.02704614398849
F4466.6101698959155
sF48.38491744906531
F666.3124116790378
sF78.3219907741773
F58.339316937475246
sF75.53256119240517
F427.0222311393468
sF80.88153049081585
F0.0
sF80.62512187645913
F0.0
ssS'12'
p7
(dp8
F76.25613408326426
F0.0
sF78.61599735368887
F0.0
sF26.384956516508797
F0.0
sF50.58436622755449
F805.492640261495
sF1.459764019123333
F0.0
sF94.44842658032307
F0.0
sF49.865875916801414
F484.2004530135243
sF48.7812354972746
F20.254392205258636
sF78.2766434999888
F0.0
sF42.21583652331117
F0.0
sF9.62694201819348
F0.0
sF88.90768723178076
F0.0
sF64.24115285310292
F0.0
sF95.55933687493766
F0.0
sF25.646660662679604
F0.0
sF98.84040886409127
F0.0
sF84.6845126546607
F0.0
sF34.66964897031194
F0.0
sF90.15263431158893
F0.0
sF89.67862308404898
F0.0
sF94.14630509019389
F0.0
sF59.72287184555682
F0.0
sF99.90778028072856
F0.0
sF27.181725725356543
F0.0
sF14.014807489020424
F0.0
sF19.97902814892884
F0.0
sF90.66107727651922
F0.0
sF100.0
F0.0
sF92.82070006754407
F0.0
sF53.8865236115453
F2663.1070449003237
sF73.01529665269835
F0.0
sF62.44751044443159
F13124.897784785631
sF21.52946633187183
F0.0
sF49.757297846624866
F437.7248401521041
sF98.90567870773374
F0.0
sF71.76657980173724
F0.0
sF20.902674031332392
F0.0
sF64.17746868896424
F0.0
sF92.54226834884797
F0.0
sF99.74579766455234
F0.0
sF60.03186493056725
F0.0
sF78.50269528902437
F0.0
sF75.40674900103372
F0.0
sF60.25740610478822
F0.0
sF64.5127676022176
F0.0
sF98.50346056722954
F0.0
sF76.2716802819239
F0.0
sF71.46372766719841
F0.0
sF58.79370789736376
F16955.403221201246
sF6.090739210395773
F0.0
sF94.02854934984029
F0.0
sF98.18714958697677
F0.0
sF27.021022947244298
F0.0
sF91.99086127268436
F0.0
sF72.64125210360547
F0.0
sF85.91365256020717
F0.0
sF61.68889724506419
F12528.509799553343
sF92.93001010575419
F0.0
sF42.87346759928092
F0.0
sF82.22584772920465
F0.0
sF49.66729103280915
F399.61204200683005
sF91.74260256511519
F0.0
sF55.031580082717916
F3714.3262427526274
sF27.31181061630828
F0.0
sF93.85988322816951
F0.0
sF18.50819896384347
F0.0
sF88.25557427063576
F0.0
sF24.271970056708554
F0.0
sF51.954676220286245
F1484.4963108501765
sF17.95400757362558
F0.0
sF42.01986209467616
F0.0
sF8.49328112688292
F0.0
sF75.00356119836167
F0.0
sF65.8273832353197
F0.0
sF97.33110643809776
F0.0
sF27.763692475762497
F0.0
sF44.262324786433076
F0.0
sF74.46272986460123
F0.0
sF63.87163900169468
F0.0
sF40.98748375492021
F0.0
sF76.57268489750489
F0.0
sF96.59412019530714
F0.0
sF29.622328146132517
F0.0
sF47.21426034903212
F0.0
sF79.8860710858606
F0.0
sF54.1932492768738
F2874.951059462748
sF43.843258570915054
F0.0
sF61.496686109109234
F11406.744330237983
sF42.47628528587827
F0.0
sF82.87673500945058
F0.0
sF42.283521465908684
F0.0
sF53.353010008596115
F2266.9711536560935
sF70.28838714663829
F0.0
sF72.61989968433473
F0.0
sF65.01818474651861
F0.0
sF25.85455996043412
F0.0
sF49.22019812997699
F734.5987190370906
sF82.96102620376915
F0.0
sF98.52679504088286
F0.0
sF98.19805641625972
F0.0
sF94.76913205396639
F0.0
sF29.02704614398849
F0.0
sF48.38491744906531
F6775.134356514132
sF78.3219907741773
F0.0
sF75.53256119240517
F0.0
sF80.88153049081585
F0.0
sF80.62512187645913
F0.0
ssS'15'
p9
(dp10
F76.25613408326426
F144.27074845538795
sF78.61599735368887
F1267.5767208497855
sF26.384956516508797
F0.0
sF50.58436622755449
F21.700390146489706
sF1.459764019123333
F0.0
sF94.44842658032307
F0.0
sF49.865875916801414
F2.4860773745043336
sF48.7812354972746
F187.39983926536223
sF78.2766434999888
F0.21593417327554262
sF42.21583652331117
F0.0
sF9.62694201819348
F0.0
sF88.90768723178076
F0.0
sF64.24115285310292
F534.0198461609514
sF95.55933687493766
F0.0
sF25.646660662679604
F0.0
sF98.84040886409127
F0.0
sF84.6845126546607
F0.0
sF34.66964897031194
F0.0
sF90.15263431158893
F0.0
sF89.67862308404898
F0.0
sF94.14630509019389
F0.0
sF59.72287184555682
F1255.6935657098666
sF99.90778028072856
F0.0
sF27.181725725356543
F0.0
sF14.014807489020424
F0.0
sF19.97902814892884
F0.0
sF90.66107727651922
F0.0
sF100.0
F0.0
sF92.82070006754407
F0.0
sF53.8865236115453
F13300.158547702735
sF73.01529665269835
F57.17844389508648
sF62.44751044443159
F760.6904604099558
sF21.52946633187183
F0.0
sF49.757297846624866
F791.5396336842097
sF98.90567870773374
F0.0
sF71.76657980173724
F89.11221572922855
sF20.902674031332392
F0.0
sF64.17746868896424
F540.9631611013826
sF92.54226834884797
F0.0
sF99.74579766455234
F0.0
sF60.03186493056725
F1183.6344001162522
sF78.50269528902437
F0.024070851596849574
sF75.40674900103372
F18.397060292915963
sF60.25740610478822
F1137.6960243647493
sF64.5127676022176
F505.24955261807884
sF98.50346056722954
F0.0
sF76.2716802819239
F10.305012142286616
sF71.46372766719841
F98.06733915525197
sF58.79370789736376
F1574.7276995677628
sF6.090739210395773
F0.0
sF94.02854934984029
F0.0
sF98.18714958697677
F0.0
sF27.021022947244298
F0.0
sF91.99086127268436
F0.0
sF72.64125210360547
F65.90137753200368
sF85.91365256020717
F0.0
sF61.68889724506419
F877.7701644214733
sF92.93001010575419
F0.0
sF42.87346759928092
F933.8686197187842
sF82.22584772920465
F0.0
sF49.66729103280915
F623.7008204893305
sF91.74260256511519
F0.0
sF55.031580082717916
F7875.384757016788
sF27.31181061630828
F0.0
sF93.85988322816951
F0.0
sF18.50819896384347
F0.0
sF88.25557427063576
F0.0
sF24.271970056708554
F0.0
sF51.954676220286245
F137.16811013171545
sF17.95400757362558
F0.0
sF42.01986209467616
F0.0
sF8.49328112688292
F0.0
sF75.00356119836167
F22.907699888433996
sF65.8273832353197
F780.7796064948942
sF97.33110643809776
F0.0
sF27.763692475762497
F0.0
sF44.262324786433076
F154.811074871998
sF74.46272986460123
F30.213620651404693
sF63.87163900169468
F575.380178720855
sF40.98748375492021
F0.0
sF76.57268489750489
F7.828622875008816
sF96.59412019530714
F0.0
sF29.622328146132517
F0.0
sF47.21426034903212
F90.42796598671111
sF79.8860710858606
F0.0
sF54.1932492768738
F11563.925842575663
sF43.843258570915054
F1342.51155491949
sF61.496686109109234
F948.612739442349
sF42.47628528587827
F0.29652237842215345
sF82.87673500945058
F0.0
sF42.283521465908684
F10561.34769037711
sF53.353010008596115
F311.0003948070195
sF70.28838714663829
F225.2984848801421
sF72.61989968433473
F66.42107210662564
sF65.01818474651861
F455.2269661873233
sF25.85455996043412
F0.0
sF49.22019812997699
F223.82381137557132
sF82.96102620376915
F0.0
sF98.52679504088286
F0.0
sF98.19805641625972
F0.0
sF94.76913205396639
F0.0
sF29.02704614398849
F0.0
sF48.38491744906531
F157.29285074873928
sF78.3219907741773
F0.1620801785679693
sF75.53256119240517
F17.118952772680867
sF80.88153049081585
F0.0
sF80.62512187645913
F0.0
ssS'14'
p11
(dp12
F76.25613408326426
F88.7821168433663
sF78.61599735368887
F9.486606266024602
sF26.384956516508797
F16.867011936231815
sF50.58436622755449
F25.29856561507452
sF1.459764019123333
F0.0
sF94.44842658032307
F0.0
sF49.865875916801414
F25.29856561507452
sF48.7812354972746
F25.29856561507452
sF78.2766434999888
F14.90651069288481
sF42.21583652331117
F25.29856561507452
sF9.62694201819348
F0.0
sF88.90768723178076
F296.4521246369302
sF64.24115285310292
F6285.2881518348
sF95.55933687493766
F0.0
sF25.646660662679604
F11.681455731958026
sF98.84040886409127
F0.0
sF84.6845126546607
F296.4521246369302
sF34.66964897031194
F25.29856561507452
sF90.15263431158893
F296.4521246369302
sF89.67862308404898
F296.4521246369302
sF94.14630509019389
F0.0
sF59.72287184555682
F25.29856561507452
sF99.90778028072856
F0.0
sF27.181725725356543
F1583.8378234951806
sF14.014807489020424
F0.0
sF19.97902814892884
F0.0
sF90.66107727651922
F296.4521246369302
sF100.0
F0.0
sF92.82070006754407
F321.3102734206868
sF53.8865236115453
F25.29856561507452
sF73.01529665269835
F4151.0124399517235
sF62.44751044443159
F25.29856561507452
sF21.52946633187183
F0.23914168457145502
sF49.757297846624866
F25.29856561507452
sF98.90567870773374
F0.0
sF71.76657980173724
F14352.352721712867
sF20.902674031332392
F0.05056015699476046
sF64.17746868896424
F25.29856561507452
sF92.54226834884797
F296.4521246369302
sF99.74579766455234
F0.0
sF60.03186493056725
F25.29856561507452
sF78.50269528902437
F11.110349643443474
sF75.40674900103372
F212.84214541462703
sF60.25740610478822
F25.29856561507452
sF64.5127676022176
F2200.7799633004497
sF98.50346056722954
F0.0
sF76.2716802819239
F87.64970819297292
sF71.46372766719841
F14352.352721712867
sF58.79370789736376
F25.29856561507452
sF6.090739210395773
F0.0
sF94.02854934984029
F0.0
sF98.18714958697677
F0.0
sF27.021022947244298
F22.406757713850954
sF91.99086127268436
F296.4521246369302
sF72.64125210360547
F5041.138370092752
sF85.91365256020717
F296.4521246369302
sF61.68889724506419
F25.29856561507452
sF92.93001010575419
F0.0
sF42.87346759928092
F25.29856561507452
sF82.22584772920465
F296.4521246369302
sF49.66729103280915
F25.29856561507452
sF91.74260256511519
F296.4521246369302
sF55.031580082717916
F25.29856561507452
sF27.31181061630828
F25.31027414163465
sF93.85988322816951
F66.7127678533243
sF18.50819896384347
F0.0
sF88.25557427063576
F296.4521246369302
sF24.271970056708554
F5.076413065524511
sF51.954676220286245
F25.29856561507452
sF17.95400757362558
F0.0
sF42.01986209467616
F25.29856561507452
sF8.49328112688292
F0.0
sF75.00356119836167
F364.7568657127615
sF65.8273832353197
F1127.1293118993356
sF97.33110643809776
F0.0
sF27.763692475762497
F25.29856561507452
sF44.262324786433076
F25.29856561507452
sF74.46272986460123
F706.5087379552135
sF63.87163900169468
F25.29856561507452
sF40.98748375492021
F25.29856561507452
sF76.57268489750489
F71.34721504192393
sF96.59412019530714
F0.0
sF29.622328146132517
F25.29856561507452
sF47.21426034903212
F25.29856561507452
sF79.8860710858606
F1584.14929610499
sF54.1932492768738
F25.29856561507452
sF43.843258570915054
F25.29856561507452
sF61.496686109109234
F25.29856561507452
sF42.47628528587827
F25.29856561507452
sF82.87673500945058
F296.4521246369302
sF42.283521465908684
F25.29856561507452
sF53.353010008596115
F25.29856561507452
sF70.28838714663829
F8119.0046038087
sF72.61989968433473
F15984.640154057131
sF65.01818474651861
F148.48233885959726
sF25.85455996043412
F13.014679099516746
sF49.22019812997699
F25.29856561507452
sF82.96102620376915
F296.4521246369302
sF98.52679504088286
F0.0
sF98.19805641625972
F0.0
sF94.76913205396639
F0.0
sF29.02704614398849
F4547.804136543106
sF48.38491744906531
F25.29856561507452
sF78.3219907741773
F14.088697257231052
sF75.53256119240517
F183.19518342483678
sF80.88153049081585
F296.4521246369302
sF80.62512187645913
F296.4521246369302
ssS'17'
p13
(dp14
F76.25613408326426
F133.82860645106823
sF78.61599735368887
F188.40218083012104
sF26.384956516508797
F0.0
sF50.58436622755449
F0.0
sF1.459764019123333
F0.0
sF94.44842658032307
F0.0
sF49.865875916801414
F0.0
sF48.7812354972746
F0.0
sF78.2766434999888
F0.0
sF42.21583652331117
F0.0
sF9.62694201819348
F0.0
sF88.90768723178076
F0.0
sF64.24115285310292
F1832.0701499908546
sF95.55933687493766
F0.0
sF25.646660662679604
F0.0
sF98.84040886409127
F0.0
sF84.6845126546607
F0.0
sF34.66964897031194
F0.0
sF90.15263431158893
F0.0
sF89.67862308404898
F15.216000884561863
sF94.14630509019389
F0.0
sF59.72287184555682
F0.0
sF99.90778028072856
F0.0
sF27.181725725356543
F0.0
sF14.014807489020424
F0.0
sF19.97902814892884
F0.0
sF90.66107727651922
F1519.0856715941711
sF100.0
F0.0
sF92.82070006754407
F0.0
sF53.8865236115453
F0.0
sF73.01529665269835
F0.0
sF62.44751044443159
F385.90827266035217
sF21.52946633187183
F0.0
sF49.757297846624866
F0.0
sF98.90567870773374
F0.0
sF71.76657980173724
F0.0
sF20.902674031332392
F0.0
sF64.17746868896424
F1779.2867989077254
sF92.54226834884797
F0.0
sF99.74579766455234
F0.0
sF60.03186493056725
F4899.139299392191
sF78.50269528902437
F0.0
sF75.40674900103372
F0.0
sF60.25740610478822
F15.666677770656111
sF64.5127676022176
F2058.4503126375694
sF98.50346056722954
F0.0
sF76.2716802819239
F0.0
sF71.46372766719841
F0.0
sF58.79370789736376
F0.0
sF6.090739210395773
F0.0
sF94.02854934984029
F0.0
sF98.18714958697677
F0.0
sF27.021022947244298
F0.0
sF91.99086127268436
F0.0
sF72.64125210360547
F0.0
sF85.91365256020717
F0.0
sF61.68889724506419
F138.17785635606748
sF92.93001010575419
F0.0
sF42.87346759928092
F0.0
sF82.22584772920465
F129.705939506881
sF49.66729103280915
F0.0
sF91.74260256511519
F0.0
sF55.031580082717916
F0.0
sF27.31181061630828
F0.0
sF93.85988322816951
F0.0
sF18.50819896384347
F0.0
sF88.25557427063576
F0.0
sF24.271970056708554
F0.0
sF51.954676220286245
F0.0
sF17.95400757362558
F0.0
sF42.01986209467616
F0.0
sF8.49328112688292
F0.0
sF75.00356119836167
F0.0
sF65.8273832353197
F3583.085484480522
sF97.33110643809776
F0.0
sF27.763692475762497
F0.0
sF44.262324786433076
F0.0
sF74.46272986460123
F0.0
sF63.87163900169468
F1527.3395778961358
sF40.98748375492021
F0.0
sF76.57268489750489
F0.0
sF96.59412019530714
F0.0
sF29.622328146132517
F0.0
sF47.21426034903212
F0.0
sF79.8860710858606
F0.0
sF54.1932492768738
F0.0
sF43.843258570915054
F0.0
sF61.496686109109234
F175.84805203386898
sF42.47628528587827
F0.0
sF82.87673500945058
F0.0
sF42.283521465908684
F0.0
sF53.353010008596115
F0.0
sF70.28838714663829
F9863.367153793808
sF72.61989968433473
F0.0
sF65.01818474651861
F2485.242017558571
sF25.85455996043412
F0.0
sF49.22019812997699
F0.0
sF82.96102620376915
F0.0
sF98.52679504088286
F0.0
sF98.19805641625972
F0.0
sF94.76913205396639
F0.0
sF29.02704614398849
F0.0
sF48.38491744906531
F0.0
sF78.3219907741773
F0.0
sF75.53256119240517
F0.0
sF80.88153049081585
F0.0
sF80.62512187645913
F0.0
ssS'16'
p15
(dp16
F76.25613408326426
F457.23365352553935
sF78.61599735368887
F203.2688383239294
sF26.384956516508797
F0.0
sF50.58436622755449
F0.0
sF1.459764019123333
F0.0
sF94.44842658032307
F0.0
sF49.865875916801414
F0.0
sF48.7812354972746
F0.0
sF78.2766434999888
F246.74141378395336
sF42.21583652331117
F0.0
sF9.62694201819348
F0.0
sF88.90768723178076
F0.0
sF64.24115285310292
F0.0
sF95.55933687493766
F0.0
sF25.646660662679604
F0.0
sF98.84040886409127
F0.0
sF84.6845126546607
F0.0
sF34.66964897031194
F0.0
sF90.15263431158893
F0.0
sF89.67862308404898
F0.0
sF94.14630509019389
F0.0
sF59.72287184555682
F0.0
sF99.90778028072856
F0.0
sF27.181725725356543
F0.0
sF14.014807489020424
F0.0
sF19.97902814892884
F0.0
sF90.66107727651922
F0.0
sF100.0
F0.0
sF92.82070006754407
F0.0
sF53.8865236115453
F0.0
sF73.01529665269835
F940.9389739622056
sF62.44751044443159
F0.0
sF21.52946633187183
F0.0
sF49.757297846624866
F0.0
sF98.90567870773374
F0.0
sF71.76657980173724
F0.0
sF20.902674031332392
F0.0
sF64.17746868896424
F0.0
sF92.54226834884797
F0.0
sF99.74579766455234
F0.0
sF60.03186493056725
F0.0
sF78.50269528902437
F217.38922059618326
sF75.40674900103372
F1620.9651224025536
sF60.25740610478822
F0.0
sF64.5127676022176
F0.0
sF98.50346056722954
F0.0
sF76.2716802819239
F452.9256027555141
sF71.46372766719841
F0.0
sF58.79370789736376
F0.0
sF6.090739210395773
F0.0
sF94.02854934984029
F0.0
sF98.18714958697677
F100.70713708624233
sF27.021022947244298
F0.0
sF91.99086127268436
F0.0
sF72.64125210360547
F50.813043821177956
sF85.91365256020717
F0.0
sF61.68889724506419
F0.0
sF92.93001010575419
F0.0
sF42.87346759928092
F0.0
sF82.22584772920465
F0.0
sF49.66729103280915
F0.0
sF91.74260256511519
F0.0
sF55.031580082717916
F0.0
sF27.31181061630828
F0.0
sF93.85988322816951
F0.0
sF18.50819896384347
F0.0
sF88.25557427063576
F0.0
sF24.271970056708554
F0.0
sF51.954676220286245
F0.0
sF17.95400757362558
F0.0
sF42.01986209467616
F0.0
sF8.49328112688292
F0.0
sF75.00356119836167
F2820.2796786229887
sF65.8273832353197
F0.0
sF97.33110643809776
F0.0
sF27.763692475762497
F0.0
sF44.262324786433076
F0.0
sF74.46272986460123
F10225.67540689304
sF63.87163900169468
F0.0
sF40.98748375492021
F0.0
sF76.57268489750489
F433.58871319845844
sF96.59412019530714
F0.0
sF29.622328146132517
F0.0
sF47.21426034903212
F0.0
sF79.8860710858606
F1065.1071911461524
sF54.1932492768738
F0.0
sF43.843258570915054
F0.0
sF61.496686109109234
F0.0
sF42.47628528587827
F0.0
sF82.87673500945058
F0.0
sF42.283521465908684
F0.0
sF53.353010008596115
F0.0
sF70.28838714663829
F0.0
sF72.61989968433473
F10892.688740143201
sF65.01818474651861
F0.0
sF25.85455996043412
F0.0
sF49.22019812997699
F0.0
sF82.96102620376915
F0.0
sF98.52679504088286
F0.0
sF98.19805641625972
F0.0
sF94.76913205396639
F0.0
sF29.02704614398849
F0.0
sF48.38491744906531
F0.0
sF78.3219907741773
F240.86061815749008
sF75.53256119240517
F1152.873326781243
sF80.88153049081585
F0.0
sF80.62512187645913
F5816.415098959957
ssS'19'
p17
(dp18
F76.25613408326426
F0.0
sF78.61599735368887
F0.0
sF26.384956516508797
F259.2341348276874
sF50.58436622755449
F0.0
sF1.459764019123333
F0.0
sF94.44842658032307
F0.0
sF49.865875916801414
F0.0
sF48.7812354972746
F0.0
sF78.2766434999888
F0.0
sF42.21583652331117
F0.0
sF9.62694201819348
F0.0
sF88.90768723178076
F0.0
sF64.24115285310292
F6267.152905384778
sF95.55933687493766
F0.0
sF25.646660662679604
F921.5202190604346
sF98.84040886409127
F0.0
sF84.6845126546607
F0.0
sF34.66964897031194
F0.0
sF90.15263431158893
F0.0
sF89.67862308404898
F0.0
sF94.14630509019389
F0.0
sF59.72287184555682
F0.0
sF99.90778028072856
F0.0
sF27.181725725356543
F1568.272992970178
sF14.014807489020424
F0.0
sF19.97902814892884
F0.0
sF90.66107727651922
F0.0
sF100.0
F0.0
sF92.82070006754407
F1775.8753500545747
sF53.8865236115453
F0.0
sF73.01529665269835
F0.0
sF62.44751044443159
F0.0
sF21.52946633187183
F7.531751908277797
sF49.757297846624866
F0.0
sF98.90567870773374
F0.0
sF71.76657980173724
F0.0
sF20.902674031332392
F0.0
sF64.17746868896424
F10317.085046859464
sF92.54226834884797
F296.4521246369302
sF99.74579766455234
F0.0
sF60.03186493056725
F0.0
sF78.50269528902437
F0.0
sF75.40674900103372
F0.0
sF60.25740610478822
F0.0
sF64.5127676022176
F4724.948519879658
sF98.50346056722954
F0.0
sF76.2716802819239
F0.0
sF71.46372766719841
F6674.590717045888
sF58.79370789736376
F0.0
sF6.090739210395773
F0.0
sF94.02854934984029
F0.0
sF98.18714958697677
F0.0
sF27.021022947244298
F9.509608721335809
sF91.99086127268436
F0.0
sF72.64125210360547
F0.0
sF85.91365256020717
F0.0
sF61.68889724506419
F0.0
sF92.93001010575419
F0.0
sF42.87346759928092
F0.0
sF82.22584772920465
F0.0
sF49.66729103280915
F0.0
sF91.74260256511519
F0.0
sF55.031580082717916
F0.0
sF27.31181061630828
F5892.347074505586
sF93.85988322816951
F133.4255357066486
sF18.50819896384347
F0.0
sF88.25557427063576
F0.0
sF24.271970056708554
F393.9230217481478
sF51.954676220286245
F0.0
sF17.95400757362558
F0.0
sF42.01986209467616
F0.0
sF8.49328112688292
F0.0
sF75.00356119836167
F0.0
sF65.8273832353197
F12565.58923556063
sF97.33110643809776
F0.0
sF27.763692475762497
F5892.335365979025
sF44.262324786433076
F0.0
sF74.46272986460123
F0.0
sF63.87163900169468
F1974.1650939483047
sF40.98748375492021
F0.0
sF76.57268489750489
F0.0
sF96.59412019530714
F0.0
sF29.622328146132517
F4702.563314899323
sF47.21426034903212
F0.0
sF79.8860710858606
F0.0
sF54.1932492768738
F0.0
sF43.843258570915054
F0.0
sF61.496686109109234
F0.0
sF42.47628528587827
F0.0
sF82.87673500945058
F0.0
sF42.283521465908684
F0.0
sF53.353010008596115
F0.0
sF70.28838714663829
F2285.794825124731
sF72.61989968433473
F0.0
sF65.01818474651861
F4271.603705149291
sF25.85455996043412
F0.0
sF49.22019812997699
F0.0
sF82.96102620376915
F0.0
sF98.52679504088286
F0.0
sF98.19805641625972
F0.0
sF94.76913205396639
F0.0
sF29.02704614398849
F6361.560347740468
sF48.38491744906531
F0.0
sF78.3219907741773
F0.0
sF75.53256119240517
F0.0
sF80.88153049081585
F0.0
sF80.62512187645913
F0.0
ssS'18'
p19
(dp20
F76.25613408326426
F327.4764262262368
sF78.61599735368887
F219.93327381200976
sF26.384956516508797
F14.061763145036094
sF50.58436622755449
F738.3644962705871
sF1.459764019123333
F0.0
sF94.44842658032307
F0.0
sF49.865875916801414
F738.3644962705871
sF48.7812354972746
F837.1856355779703
sF78.2766434999888
F228.151148966117
sF42.21583652331117
F837.1856355779703
sF9.62694201819348
F0.0
sF88.90768723178076
F0.0
sF64.24115285310292
F4473.461139705204
sF95.55933687493766
F0.0
sF25.646660662679604
F15.57231904120658
sF98.84040886409127
F0.0
sF84.6845126546607
F1309.7637182172837
sF34.66964897031194
F837.1856355779703
sF90.15263431158893
F0.0
sF89.67862308404898
F0.0
sF94.14630509019389
F0.0
sF59.72287184555682
F8329.510035491097
sF99.90778028072856
F0.0
sF27.181725725356543
F3698.9912714614698
sF14.014807489020424
F0.0
sF19.97902814892884
F0.0
sF90.66107727651922
F0.0
sF100.0
F0.0
sF92.82070006754407
F0.0
sF53.8865236115453
F11834.021522467896
sF73.01529665269835
F7177.081256033129
sF62.44751044443159
F8329.510035491097
sF21.52946633187183
F79.15920642979859
sF49.757297846624866
F1046.1532574371847
sF98.90567870773374
F0.0
sF71.76657980173724
F8809.368688377393
sF20.902674031332392
F28.196280629821445
sF64.17746868896424
F9143.021371757686
sF92.54226834884797
F0.0
sF99.74579766455234
F0.0
sF60.03186493056725
F8329.510035491097
sF78.50269528902437
F222.45994436928586
sF75.40674900103372
F471.73236109568535
sF60.25740610478822
F8329.510035491097
sF64.5127676022176
F4785.6434841019545
sF98.50346056722954
F0.0
sF76.2716802819239
F326.0897579035559
sF71.46372766719841
F8809.368688377393
sF58.79370789736376
F8329.510035491097
sF6.090739210395773
F0.0
sF94.02854934984029
F0.0
sF98.18714958697677
F0.0
sF27.021022947244298
F23.986917224455652
sF91.99086127268436
F0.0
sF72.64125210360547
F7177.081256033129
sF85.91365256020717
F0.0
sF61.68889724506419
F8329.510035491097
sF92.93001010575419
F0.0
sF42.87346759928092
F837.1856355779703
sF82.22584772920465
F2322.511663230947
sF49.66729103280915
F846.7269943957525
sF91.74260256511519
F0.0
sF55.031580082717916
F8329.510035491097
sF27.31181061630828
F6690.634095662662
sF93.85988322816951
F0.0
sF18.50819896384347
F0.0
sF88.25557427063576
F0.0
sF24.271970056708554
F208.58233654720524
sF51.954676220286245
F426.42082889036925
sF17.95400757362558
F0.0
sF42.01986209467616
F837.1856355779703
sF8.49328112688292
F0.0
sF75.00356119836167
F714.0143859472121
sF65.8273832353197
F4858.176690104015
sF97.33110643809776
F0.0
sF27.763692475762497
F837.1856355779703
sF44.262324786433076
F837.1856355779703
sF74.46272986460123
F1336.8485250988072
sF63.87163900169468
F8329.510035491097
sF40.98748375492021
F837.1856355779703
sF76.57268489750489
F305.0429655018907
sF96.59412019530714
F0.0
sF29.622328146132517
F837.1856355779703
sF47.21426034903212
F837.1856355779703
sF79.8860710858606
F543.9847670183246
sF54.1932492768738
F8329.510035491097
sF43.843258570915054
F837.1856355779703
sF61.496686109109234
F8329.510035491097
sF42.47628528587827
F837.1856355779703
sF82.87673500945058
F1287.621534542209
sF42.283521465908684
F837.1856355779703
sF53.353010008596115
F302.50322329962415
sF70.28838714663829
F6082.331264110939
sF72.61989968433473
F7177.081256033129
sF65.01818474651861
F4485.065954965123
sF25.85455996043412
F15.354184979198676
sF49.22019812997699
F837.1856355779703
sF82.96102620376915
F1227.5836436741347
sF98.52679504088286
F0.0
sF98.19805641625972
F0.0
sF94.76913205396639
F0.0
sF29.02704614398849
F837.1856355779703
sF48.38491744906531
F837.1856355779703
sF78.3219907741773
F226.93781389836488
sF75.53256119240517
F434.7263974086517
sF80.88153049081585
F2322.511663230947
sF80.62512187645913
F3872.1961146177973
ssS'1'
p21
(dp22
F76.25613408326426
F322.7056541588075
sF78.61599735368887
F292.03310113788154
sF26.384956516508797
F165.60287761323482
sF50.58436622755449
F4070.397600347438
sF1.459764019123333
F0.0
sF94.44842658032307
F0.0
sF49.865875916801414
F4087.3336920037295
sF48.7812354972746
F4022.389726617583
sF78.2766434999888
F28.255541967181514
sF42.21583652331117
F4289.3015660928
sF9.62694201819348
F0.0
sF88.90768723178076
F203.3133443172799
sF64.24115285310292
F20095.280555449903
sF95.55933687493766
F0.0
sF25.646660662679604
F129.6304680857471
sF98.84040886409127
F0.0
sF84.6845126546607
F27.0995254698585
sF34.66964897031194
F200.12213291458914
sF90.15263431158893
F439.0552177618599
sF89.67862308404898
F439.0552177618599
sF94.14630509019389
F0.0
sF59.72287184555682
F220.88842750803724
sF99.90778028072856
F0.0
sF27.181725725356543
F200.12213291458914
sF14.014807489020424
F0.0
sF19.97902814892884
F0.0
sF90.66107727651922
F439.0552177618599
sF100.0
F0.0
sF92.82070006754407
F1779.4680099185528
sF53.8865236115453
F3237.258500364545
sF73.01529665269835
F2799.4790806216483
sF62.44751044443159
F19337.88029957369
sF21.52946633187183
F85.7896384878417
sF49.757297846624866
F4085.7371108274083
sF98.90567870773374
F0.0
sF71.76657980173724
F3096.1140601561096
sF20.902674031332392
F34.55744190364971
sF64.17746868896424
F20065.846808324168
sF92.54226834884797
F803.503668189383
sF99.74579766455234
F0.0
sF60.03186493056725
F185.2349415118783
sF78.50269528902437
F105.7284301346507
sF75.40674900103372
F902.9445097357136
sF60.25740610478822
F159.21064036490338
sF64.5127676022176
F20222.91753910201
sF98.50346056722954
F0.0
sF76.2716802819239
F217.0131857054755
sF71.46372766719841
F3096.1140601561096
sF58.79370789736376
F469.019090635251
sF6.090739210395773
F0.0
sF94.02854934984029
F0.0
sF98.18714958697677
F0.0
sF27.021022947244298
F474.3828779601903
sF91.99086127268436
F259.6381292204261
sF72.64125210360547
F3096.1140601561096
sF85.91365256020717
F36.1193609873517
sF61.68889724506419
F464.06158041293327
sF92.93001010575419
F2.8763668883945255
sF42.87346759928092
F6478.551706341174
sF82.22584772920465
F133.39877113754937
sF49.66729103280915
F4083.586412177187
sF91.74260256511519
F439.0552177618599
sF55.031580082717916
F3393.2096362252078
sF27.31181061630828
F200.12213291458914
sF93.85988322816951
F48.516252373914064
sF18.50819896384347
F0.0
sF88.25557427063576
F149.6261381348367
sF24.271970056708554
F269.14405861529787
sF51.954676220286245
F3905.6312550187645
sF17.95400757362558
F0.0
sF42.01986209467616
F3636.9037992420976
sF8.49328112688292
F0.0
sF75.00356119836167
F1222.6914647019469
sF65.8273832353197
F6844.096727451041
sF97.33110643809776
F0.0
sF27.763692475762497
F200.12213291458914
sF44.262324786433076
F1895.1500830471327
sF74.46272986460123
F1651.5962355659735
sF63.87163900169468
F19927.104821228768
sF40.98748375492021
F331.39837808755084
sF76.57268489750489
F206.22862755611916
sF96.59412019530714
F0.0
sF29.622328146132517
F200.12213291458914
sF47.21426034903212
F3253.9025426191038
sF79.8860710858606
F81.79588836818894
sF54.1932492768738
F3076.9302164336113
sF43.843258570915054
F10453.572000754904
sF61.496686109109234
F11986.574879904858
sF42.47628528587827
F5156.334026711751
sF82.87673500945058
F42.54483459741445
sF42.283521465908684
F4514.624357987649
sF53.353010008596115
F3449.7338522616546
sF70.28838714663829
F3184.1166436000553
sF72.61989968433473
F3096.1140601561096
sF65.01818474651861
F8838.468316241995
sF25.85455996043412
F139.31506665347868
sF49.22019812997699
F4370.643108371656
sF82.96102620376915
F41.68598355905522
sF98.52679504088286
F0.0
sF98.19805641625972
F0.0
sF94.76913205396639
F0.0
sF29.02704614398849
F200.12213291458914
sF48.38491744906531
F3828.0245886779485
sF78.3219907741773
F25.410715724013254
sF75.53256119240517
F803.1695045841517
sF80.88153049081585
F66.8349268480643
sF80.62512187645913
F70.5076432681923
ssS'0'
p23
(dp24
F76.25613408326426
F5507.901811324486
sF78.61599735368887
F2037.9066727439838
sF26.384956516508797
F35.896355728684256
sF50.58436622755449
F597.2709190553003
sF1.459764019123333
F0.0
sF94.44842658032307
F0.0
sF49.865875916801414
F597.2709190553003
sF48.7812354972746
F597.2709190553003
sF78.2766434999888
F319.1776725176447
sF42.21583652331117
F597.2709190553003
sF9.62694201819348
F0.0
sF88.90768723178076
F504.4300059429471
sF64.24115285310292
F597.2709190553003
sF95.55933687493766
F0.0
sF25.646660662679604
F969.6447654208814
sF98.84040886409127
F0.0
sF84.6845126546607
F4007.378756940825
sF34.66964897031194
F0.0
sF90.15263431158893
F144.45271900551802
sF89.67862308404898
F409.3752051969915
sF94.14630509019389
F0.0
sF59.72287184555682
F597.2709190553003
sF99.90778028072856
F0.0
sF27.181725725356543
F9868.387663163145
sF14.014807489020424
F0.0
sF19.97902814892884
F0.0
sF90.66107727651922
F6352.099087371187
sF100.0
F0.0
sF92.82070006754407
F0.0
sF53.8865236115453
F597.2709190553003
sF73.01529665269835
F299.2126084320107
sF62.44751044443159
F597.2709190553003
sF21.52946633187183
F732.1338186833955
sF49.757297846624866
F597.2709190553003
sF98.90567870773374
F0.0
sF71.76657980173724
F2.5776288975493666
sF20.902674031332392
F518.4662698847307
sF64.17746868896424
F597.2709190553003
sF92.54226834884797
F0.0
sF99.74579766455234
F0.0
sF60.03186493056725
F597.2709190553003
sF78.50269528902437
F327.2767797652689
sF75.40674900103372
F2984.3148372578407
sF60.25740610478822
F597.2709190553003
sF64.5127676022176
F597.2709190553003
sF98.50346056722954
F0.0
sF76.2716802819239
F6235.215657666069
sF71.46372766719841
F2.5776288975493666
sF58.79370789736376
F597.2709190553003
sF6.090739210395773
F0.0
sF94.02854934984029
F0.0
sF98.18714958697677
F0.0
sF27.021022947244298
F370.43298543551145
sF91.99086127268436
F0.0
sF72.64125210360547
F2.5776288975493666
sF85.91365256020717
F4026.3846984885827
sF61.68889724506419
F597.2709190553003
sF92.93001010575419
F0.0
sF42.87346759928092
F597.2709190553003
sF82.22584772920465
F1260.015343073391
sF49.66729103280915
F597.2709190553003
sF91.74260256511519
F0.0
sF55.031580082717916
F597.2709190553003
sF27.31181061630828
F6561.24638626224
sF93.85988322816951
F0.0
sF18.50819896384347
F0.0
sF88.25557427063576
F4158.918340201594
sF24.271970056708554
F914.1110843043468
sF51.954676220286245
F597.2709190553003
sF17.95400757362558
F0.0
sF42.01986209467616
F597.2709190553003
sF8.49328112688292
F0.0
sF75.00356119836167
F1876.0002243517122
sF65.8273832353197
F597.2709190553003
sF97.33110643809776
F0.0
sF27.763692475762497
F0.0
sF44.262324786433076
F597.2709190553003
sF74.46272986460123
F1447.0954534876853
sF63.87163900169468
F597.2709190553003
sF40.98748375492021
F0.0
sF76.57268489750489
F197.0769492638521
sF96.59412019530714
F0.0
sF29.622328146132517
F0.0
sF47.21426034903212
F597.2709190553003
sF79.8860710858606
F454.2515682538248
sF54.1932492768738
F597.2709190553003
sF43.843258570915054
F597.2709190553003
sF61.496686109109234
F597.2709190553003
sF42.47628528587827
F597.2709190553003
sF82.87673500945058
F1219.4237403516913
sF42.283521465908684
F597.2709190553003
sF53.353010008596115
F597.2709190553003
sF70.28838714663829
F9865.944782691357
sF72.61989968433473
F2.5776288975493666
sF65.01818474651861
F597.2709190553003
sF25.85455996043412
F994.2186479692069
sF49.22019812997699
F597.2709190553003
sF82.96102620376915
F1288.2086388406278
sF98.52679504088286
F0.0
sF98.19805641625972
F0.0
sF94.76913205396639
F0.0
sF29.02704614398849
F0.0
sF48.38491744906531
F597.2709190553003
sF78.3219907741773
F320.8023994822354
sF75.53256119240517
F3333.559185557222
sF80.88153049081585
F552.7335638812026
sF80.62512187645913
F527.1858507128159
ssS'3'
p25
(dp26
F76.25613408326426
F0.0
sF78.61599735368887
F853.2790948505178
sF26.384956516508797
F0.0
sF50.58436622755449
F0.0
sF1.459764019123333
F0.0
sF94.44842658032307
F10.512800652300516
sF49.865875916801414
F0.0
sF48.7812354972746
F0.0
sF78.2766434999888
F0.0
sF42.21583652331117
F0.0
sF9.62694201819348
F0.0
sF88.90768723178076
F1.4083790518015942
sF64.24115285310292
F0.0
sF95.55933687493766
F7.734447145318396
sF25.646660662679604
F0.0
sF98.84040886409127
F0.0
sF84.6845126546607
F0.0
sF34.66964897031194
F0.0
sF90.15263431158893
F1.8235542608262407
sF89.67862308404898
F31.833884748634993
sF94.14630509019389
F10.512800652300516
sF59.72287184555682
F0.0
sF99.90778028072856
F0.0
sF27.181725725356543
F3228.1070261387554
sF14.014807489020424
F0.0
sF19.97902814892884
F0.0
sF90.66107727651922
F693.8935713195448
sF100.0
F0.0
sF92.82070006754407
F10.512800652300516
sF53.8865236115453
F0.0
sF73.01529665269835
F0.0
sF62.44751044443159
F0.0
sF21.52946633187183
F0.0
sF49.757297846624866
F0.0
sF98.90567870773374
F0.0
sF71.76657980173724
F0.0
sF20.902674031332392
F0.0
sF64.17746868896424
F0.0
sF92.54226834884797
F10.512800652300516
sF99.74579766455234
F0.0
sF60.03186493056725
F0.0
sF78.50269528902437
F0.0
sF75.40674900103372
F0.0
sF60.25740610478822
F0.0
sF64.5127676022176
F0.0
sF98.50346056722954
F0.0
sF76.2716802819239
F6059.7078247009285
sF71.46372766719841
F0.0
sF58.79370789736376
F0.0
sF6.090739210395773
F0.0
sF94.02854934984029
F10.512800652300516
sF98.18714958697677
F0.0
sF27.021022947244298
F0.0
sF91.99086127268436
F10.512800652300516
sF72.64125210360547
F0.0
sF85.91365256020717
F0.4099037023199602
sF61.68889724506419
F0.0
sF92.93001010575419
F10.512800652300516
sF42.87346759928092
F0.0
sF82.22584772920465
F98.40117917974732
sF49.66729103280915
F0.0
sF91.74260256511519
F10.512800652300516
sF55.031580082717916
F0.0
sF27.31181061630828
F3299.2740988531873
sF93.85988322816951
F10.512800652300516
sF18.50819896384347
F0.0
sF88.25557427063576
F1.1909070489010603
sF24.271970056708554
F0.0
sF51.954676220286245
F0.0
sF17.95400757362558
F0.0
sF42.01986209467616
F597.2709190553003
sF8.49328112688292
F0.0
sF75.00356119836167
F0.0
sF65.8273832353197
F0.0
sF97.33110643809776
F1.5049202571889206
sF27.763692475762497
F0.0
sF44.262324786433076
F0.0
sF74.46272986460123
F0.0
sF63.87163900169468
F0.0
sF40.98748375492021
F0.0
sF76.57268489750489
F0.0
sF96.59412019530714
F4.096157690716737
sF29.622328146132517
F0.0
sF47.21426034903212
F0.0
sF79.8860710858606
F0.0
sF54.1932492768738
F0.0
sF43.843258570915054
F0.0
sF61.496686109109234
F0.0
sF42.47628528587827
F0.0
sF82.87673500945058
F0.0
sF42.283521465908684
F0.0
sF53.353010008596115
F0.0
sF70.28838714663829
F0.0
sF72.61989968433473
F0.0
sF65.01818474651861
F0.0
sF25.85455996043412
F933.6879678978542
sF49.22019812997699
F0.0
sF82.96102620376915
F0.0
sF98.52679504088286
F0.0
sF98.19805641625972
F0.0
sF94.76913205396639
F90.84422278438878
sF29.02704614398849
F0.0
sF48.38491744906531
F0.0
sF78.3219907741773
F0.0
sF75.53256119240517
F0.0
sF80.88153049081585
F0.0
sF80.62512187645913
F0.0
ssS'2'
p27
(dp28
F76.25613408326426
F975.050179791679
sF78.61599735368887
F3192.8843278115855
sF26.384956516508797
F0.0
sF50.58436622755449
F517.3037771496469
sF1.459764019123333
F0.0
sF94.44842658032307
F0.0
sF49.865875916801414
F462.7374928150032
sF48.7812354972746
F417.2213681427156
sF78.2766434999888
F357.91795649730017
sF42.21583652331117
F0.0
sF9.62694201819348
F0.0
sF88.90768723178076
F68.77992265769991
sF64.24115285310292
F7501.035439066856
sF95.55933687493766
F0.0
sF25.646660662679604
F0.0
sF98.84040886409127
F0.0
sF84.6845126546607
F382.61192264305896
sF34.66964897031194
F0.0
sF90.15263431158893
F0.0
sF89.67862308404898
F160.68410134864808
sF94.14630509019389
F0.0
sF59.72287184555682
F7990.936121709111
sF99.90778028072856
F0.0
sF27.181725725356543
F0.0
sF14.014807489020424
F0.0
sF19.97902814892884
F0.0
sF90.66107727651922
F1519.0856715941711
sF100.0
F0.0
sF92.82070006754407
F0.0
sF53.8865236115453
F960.4436620644126
sF73.01529665269835
F2722.943835284761
sF62.44751044443159
F9153.373260660328
sF21.52946633187183
F0.0
sF49.757297846624866
F454.75327055268264
sF98.90567870773374
F0.0
sF71.76657980173724
F2604.896729806724
sF20.902674031332392
F0.0
sF64.17746868896424
F7566.554837456558
sF92.54226834884797
F0.0
sF99.74579766455234
F0.0
sF60.03186493056725
F8565.517638928575
sF78.50269528902437
F349.47466772005396
sF75.40674900103372
F2174.576583920441
sF60.25740610478822
F3811.026063644429
sF64.5127676022176
F7215.718678582227
sF98.50346056722954
F0.0
sF76.2716802819239
F447.85156370097764
sF71.46372766719841
F2577.476890566841
sF58.79370789736376
F7363.574979458314
sF6.090739210395773
F0.0
sF94.02854934984029
F0.0
sF98.18714958697677
F0.0
sF27.021022947244298
F0.0
sF91.99086127268436
F0.0
sF72.64125210360547
F2686.7410280833037
sF85.91365256020717
F354.17624187548876
sF61.68889724506419
F2329.419465489674
sF92.93001010575419
F0.0
sF42.87346759928092
F115.09508628725851
sF82.22584772920465
F831.205354962206
sF49.66729103280915
F462.82123554796294
sF91.74260256511519
F0.0
sF55.031580082717916
F3675.1835627392143
sF27.31181061630828
F0.0
sF93.85988322816951
F0.0
sF18.50819896384347
F0.0
sF88.25557427063576
F107.35481966841097
sF24.271970056708554
F0.0
sF51.954676220286245
F630.8079957859115
sF17.95400757362558
F0.0
sF42.01986209467616
F0.0
sF8.49328112688292
F0.0
sF75.00356119836167
F2927.479559419995
sF65.8273832353197
F7683.6788791799945
sF97.33110643809776
F0.0
sF27.763692475762497
F0.0
sF44.262324786433076
F6575.260463765697
sF74.46272986460123
F2869.8273130429343
sF63.87163900169468
F7873.989142240797
sF40.98748375492021
F0.0
sF76.57268489750489
F432.6246377322076
sF96.59412019530714
F0.0
sF29.622328146132517
F0.0
sF47.21426034903212
F6894.909764932491
sF79.8860710858606
F820.0515423488828
sF54.1932492768738
F1022.1958256282662
sF43.843258570915054
F3477.4048952074972
sF61.496686109109234
F2493.8065740399657
sF42.47628528587827
F2694.2092494676835
sF82.87673500945058
F557.7363773451452
sF42.283521465908684
F0.0
sF53.353010008596115
F869.2148931897116
sF70.28838714663829
F2827.547993237518
sF72.61989968433473
F2684.696126390567
sF65.01818474651861
F6711.402630610193
sF25.85455996043412
F0.0
sF49.22019812997699
F937.4093960138882
sF82.96102620376915
F549.848220762642
sF98.52679504088286
F0.0
sF98.19805641625972
F0.0
sF94.76913205396639
F0.0
sF29.02704614398849
F0.0
sF48.38491744906531
F7191.682028801743
sF78.3219907741773
F356.19662143631797
sF75.53256119240517
F1932.9637699458553
sF80.88153049081585
F736.5305082416297
sF80.62512187645913
F758.4055049898883
ssS'5'
p29
(dp30
F76.25613408326426
F7.092326173876357
sF78.61599735368887
F7.092326173876357
sF26.384956516508797
F0.0
sF50.58436622755449
F0.0
sF1.459764019123333
F0.0
sF94.44842658032307
F40.72126805690495
sF49.865875916801414
F0.0
sF48.7812354972746
F0.0
sF78.2766434999888
F7.092326173876357
sF42.21583652331117
F0.0
sF9.62694201819348
F0.0
sF88.90768723178076
F282.489467362881
sF64.24115285310292
F7.092326173876357
sF95.55933687493766
F0.0
sF25.646660662679604
F0.0
sF98.84040886409127
F0.0
sF84.6845126546607
F89.57275094988486
sF34.66964897031194
F0.0
sF90.15263431158893
F339.44179910545336
sF89.67862308404898
F317.7547118726069
sF94.14630509019389
F1913.175239013788
sF59.72287184555682
F7574.392062518706
sF99.90778028072856
F0.0
sF27.181725725356543
F0.0
sF14.014807489020424
F0.0
sF19.97902814892884
F0.0
sF90.66107727651922
F362.7096002609771
sF100.0
F0.0
sF92.82070006754407
F624.2524842131302
sF53.8865236115453
F0.0
sF73.01529665269835
F7.092326173876357
sF62.44751044443159
F7.092326173876357
sF21.52946633187183
F0.0
sF49.757297846624866
F0.0
sF98.90567870773374
F0.0
sF71.76657980173724
F7.092326173876357
sF20.902674031332392
F0.0
sF64.17746868896424
F7.092326173876357
sF92.54226834884797
F520.6677866170136
sF99.74579766455234
F0.0
sF60.03186493056725
F0.0
sF78.50269528902437
F7.092326173876357
sF75.40674900103372
F7.092326173876357
sF60.25740610478822
F0.0
sF64.5127676022176
F7.092326173876357
sF98.50346056722954
F0.0
sF76.2716802819239
F7.092326173876357
sF71.46372766719841
F7.092326173876357
sF58.79370789736376
F0.0
sF6.090739210395773
F0.0
sF94.02854934984029
F1670.4298324424701
sF98.18714958697677
F0.0
sF27.021022947244298
F0.0
sF91.99086127268436
F1849.9345849973072
sF72.64125210360547
F7.092326173876357
sF85.91365256020717
F145.67580519811258
sF61.68889724506419
F5405.560685553139
sF92.93001010575419
F674.9293411055424
sF42.87346759928092
F0.0
sF82.22584772920465
F7.095615368969776
sF49.66729103280915
F0.0
sF91.74260256511519
F525.348400030266
sF55.031580082717916
F0.0
sF27.31181061630828
F0.0
sF93.85988322816951
F1334.2522363607463
sF18.50819896384347
F0.0
sF88.25557427063576
F252.6691999693055
sF24.271970056708554
F0.0
sF51.954676220286245
F0.0
sF17.95400757362558
F0.0
sF42.01986209467616
F0.0
sF8.49328112688292
F0.0
sF75.00356119836167
F7.092326173876357
sF65.8273832353197
F7.092326173876357
sF97.33110643809776
F0.0
sF27.763692475762497
F0.0
sF44.262324786433076
F0.0
sF74.46272986460123
F7.092326173876357
sF63.87163900169468
F7.092326173876357
sF40.98748375492021
F0.0
sF76.57268489750489
F7.092326173876357
sF96.59412019530714
F0.0
sF29.622328146132517
F0.0
sF47.21426034903212
F0.0
sF79.8860710858606
F7.092326173876357
sF54.1932492768738
F0.0
sF43.843258570915054
F0.0
sF61.496686109109234
F5586.154021548447
sF42.47628528587827
F0.0
sF82.87673500945058
F7.0972079210753485
sF42.283521465908684
F0.0
sF53.353010008596115
F0.0
sF70.28838714663829
F7.092326173876357
sF72.61989968433473
F7.092326173876357
sF65.01818474651861
F7.092326173876357
sF25.85455996043412
F0.0
sF49.22019812997699
F0.0
sF82.96102620376915
F10.941808901022204
sF98.52679504088286
F0.0
sF98.19805641625972
F0.0
sF94.76913205396639
F0.0
sF29.02704614398849
F0.0
sF48.38491744906531
F0.0
sF78.3219907741773
F7.092326173876357
sF75.53256119240517
F7.092326173876357
sF80.88153049081585
F7587.3986340662
sF80.62512187645913
F7.092326173876357
ssS'4'
p31
(dp32
F76.25613408326426
F1825.5385071272065
sF78.61599735368887
F5132.829014195414
sF26.384956516508797
F0.0
sF50.58436622755449
F0.0
sF1.459764019123333
F0.0
sF94.44842658032307
F64.03986444539188
sF49.865875916801414
F0.0
sF48.7812354972746
F0.0
sF78.2766434999888
F821.9029946535361
sF42.21583652331117
F0.0
sF9.62694201819348
F0.0
sF88.90768723178076
F2323.045783753891
sF64.24115285310292
F0.0
sF95.55933687493766
F51.744142625291936
sF25.646660662679604
F0.0
sF98.84040886409127
F0.0
sF84.6845126546607
F2678.650854029438
sF34.66964897031194
F0.0
sF90.15263431158893
F2198.416909270149
sF89.67862308404898
F2245.874306631249
sF94.14630509019389
F79.69533282207163
sF59.72287184555682
F0.0
sF99.90778028072856
F0.0
sF27.181725725356543
F0.0
sF14.014807489020424
F0.0
sF19.97902814892884
F7478.518694753994
sF90.66107727651922
F2147.5051547232656
sF100.0
F0.0
sF92.82070006754407
F3383.5421229117487
sF53.8865236115453
F0.0
sF73.01529665269835
F0.0
sF62.44751044443159
F0.0
sF21.52946633187183
F0.0
sF49.757297846624866
F0.0
sF98.90567870773374
F0.0
sF71.76657980173724
F0.0
sF20.902674031332392
F0.0
sF64.17746868896424
F0.0
sF92.54226834884797
F3265.329607944032
sF99.74579766455234
F0.0
sF60.03186493056725
F0.0
sF78.50269528902437
F877.2700482533213
sF75.40674900103372
F3295.2132748832714
sF60.25740610478822
F0.0
sF64.5127676022176
F0.0
sF98.50346056722954
F0.0
sF76.2716802819239
F251.00895980557695
sF71.46372766719841
F0.0
sF58.79370789736376
F0.0
sF6.090739210395773
F0.0
sF94.02854934984029
F5022.945443964713
sF98.18714958697677
F0.0
sF27.021022947244298
F0.0
sF91.99086127268436
F4504.382429354595
sF72.64125210360547
F0.0
sF85.91365256020717
F2622.591629487751
sF61.68889724506419
F0.0
sF92.93001010575419
F3518.306886499567
sF42.87346759928092
F0.0
sF82.22584772920465
F2789.066130525374
sF49.66729103280915
F0.0
sF91.74260256511519
F2157.554158467611
sF55.031580082717916
F0.0
sF27.31181061630828
F0.0
sF93.85988322816951
F5075.156419989043
sF18.50819896384347
F0.0
sF88.25557427063576
F2388.309784350816
sF24.271970056708554
F0.0
sF51.954676220286245
F0.0
sF17.95400757362558
F0.0
sF42.01986209467616
F0.0
sF8.49328112688292
F0.0
sF75.00356119836167
F1701.7019735131753
sF65.8273832353197
F0.0
sF97.33110643809776
F22.380143385501096
sF27.763692475762497
F0.0
sF44.262324786433076
F0.0
sF74.46272986460123
F6668.279766150922
sF63.87163900169468
F0.0
sF40.98748375492021
F0.0
sF76.57268489750489
F344.5036187265274
sF96.59412019530714
F37.37186146073487
sF29.622328146132517
F0.0
sF47.21426034903212
F0.0
sF79.8860710858606
F3228.0441172414917
sF54.1932492768738
F0.0
sF43.843258570915054
F0.0
sF61.496686109109234
F0.0
sF42.47628528587827
F0.0
sF82.87673500945058
F2764.307206387308
sF42.283521465908684
F0.0
sF53.353010008596115
F0.0
sF70.28838714663829
F0.0
sF72.61989968433473
F0.0
sF65.01818474651861
F0.0
sF25.85455996043412
F0.0
sF49.22019812997699
F0.0
sF82.96102620376915
F2757.2564818421065
sF98.52679504088286
F0.0
sF98.19805641625972
F0.0
sF94.76913205396639
F57.467275630742876
sF29.02704614398849
F0.0
sF48.38491744906531
F0.0
sF78.3219907741773
F832.5552160906549
sF75.53256119240517
F7504.558398517412
sF80.88153049081585
F2840.2022481495924
sF80.62512187645913
F7348.765875653259
ssS'7'
p33
(dp34
F76.25613408326426
F27.52480285619613
sF78.61599735368887
F322.8791450492969
sF26.384956516508797
F0.0
sF50.58436622755449
F0.0
sF1.459764019123333
F0.0
sF94.44842658032307
F5.547396598636017
sF49.865875916801414
F0.0
sF48.7812354972746
F0.0
sF78.2766434999888
F219.2418199600307
sF42.21583652331117
F0.0
sF9.62694201819348
F0.0
sF88.90768723178076
F0.45533589039545813
sF64.24115285310292
F0.0
sF95.55933687493766
F0.0
sF25.646660662679604
F0.0
sF98.84040886409127
F0.0
sF84.6845126546607
F0.2547954121707261
sF34.66964897031194
F0.0
sF90.15263431158893
F0.34712622471631416
sF89.67862308404898
F0.3883268486562183
sF94.14630509019389
F20.922389522329105
sF59.72287184555682
F0.0
sF99.90778028072856
F0.0
sF27.181725725356543
F0.0
sF14.014807489020424
F0.0
sF19.97902814892884
F0.0
sF90.66107727651922
F0.32810465604513817
sF100.0
F0.0
sF92.82070006754407
F0.17113064666429642
sF53.8865236115453
F0.0
sF73.01529665269835
F0.0
sF62.44751044443159
F0.0
sF21.52946633187183
F0.0
sF49.757297846624866
F0.0
sF98.90567870773374
F0.0
sF71.76657980173724
F0.0
sF20.902674031332392
F0.0
sF64.17746868896424
F0.0
sF92.54226834884797
F0.19764476438568399
sF99.74579766455234
F0.0
sF60.03186493056725
F0.0
sF78.50269528902437
F304.14730313581504
sF75.40674900103372
F0.0
sF60.25740610478822
F0.0
sF64.5127676022176
F0.0
sF98.50346056722954
F0.0
sF76.2716802819239
F27.67311449662546
sF71.46372766719841
F0.0
sF58.79370789736376
F0.0
sF6.090739210395773
F0.0
sF94.02854934984029
F81.27006746790431
sF98.18714958697677
F0.0
sF27.021022947244298
F0.0
sF91.99086127268436
F323.1207629435507
sF72.64125210360547
F0.0
sF85.91365256020717
F0.3654376639773757
sF61.68889724506419
F0.0
sF92.93001010575419
F0.16001618050711175
sF42.87346759928092
F0.0
sF82.22584772920465
F66.86744400961702
sF49.66729103280915
F0.0
sF91.74260256511519
F123.23023663441504
sF55.031580082717916
F0.0
sF27.31181061630828
F0.0
sF93.85988322816951
F167.7083910719412
sF18.50819896384347
F0.0
sF88.25557427063576
F0.45744953791979726
sF24.271970056708554
F0.0
sF51.954676220286245
F0.0
sF17.95400757362558
F0.0
sF42.01986209467616
F0.0
sF8.49328112688292
F0.0
sF75.00356119836167
F0.0
sF65.8273832353197
F0.0
sF97.33110643809776
F0.0
sF27.763692475762497
F0.0
sF44.262324786433076
F0.0
sF74.46272986460123
F0.0
sF63.87163900169468
F0.0
sF40.98748375492021
F0.0
sF76.57268489750489
F44.6010262032041
sF96.59412019530714
F0.0
sF29.622328146132517
F0.0
sF47.21426034903212
F0.0
sF79.8860710858606
F2228.2542357651196
sF54.1932492768738
F0.0
sF43.843258570915054
F0.0
sF61.496686109109234
F0.0
sF42.47628528587827
F0.0
sF82.87673500945058
F91.62477559557823
sF42.283521465908684
F0.0
sF53.353010008596115
F0.0
sF70.28838714663829
F0.0
sF72.61989968433473
F0.0
sF65.01818474651861
F0.0
sF25.85455996043412
F0.0
sF49.22019812997699
F0.0
sF82.96102620376915
F94.83089916083357
sF98.52679504088286
F0.0
sF98.19805641625972
F0.0
sF94.76913205396639
F0.0
sF29.02704614398849
F0.0
sF48.38491744906531
F0.0
sF78.3219907741773
F226.0157017890521
sF75.53256119240517
F6553.55115629654
sF80.88153049081585
F7596.040923472816
sF80.62512187645913
F4359.776989769988
ssS'6'
p35
(dp36
F76.25613408326426
F0.0
sF78.61599735368887
F0.0
sF26.384956516508797
F3581.4604787802136
sF50.58436622755449
F94.08012588946241
sF1.459764019123333
F0.0
sF94.44842658032307
F25.453907987788917
sF49.865875916801414
F121.59167821486457
sF48.7812354972746
F168.66799316660675
sF78.2766434999888
F0.0
sF42.21583652331117
F259.8058581501164
sF9.62694201819348
F0.0
sF88.90768723178076
F185.0530437353753
sF64.24115285310292
F0.0
sF95.55933687493766
F12.574673206457152
sF25.646660662679604
F3916.896530560042
sF98.84040886409127
F0.0
sF84.6845126546607
F0.0
sF34.66964897031194
F904.5238848300105
sF90.15263431158893
F538.3373060255481
sF89.67862308404898
F473.7402808480697
sF94.14630509019389
F29.733919730183338
sF59.72287184555682
F0.0
sF99.90778028072856
F0.0
sF27.181725725356543
F13643.689849658504
sF14.014807489020424
F0.0
sF19.97902814892884
F7478.518694753994
sF90.66107727651922
F7026.199866010778
sF100.0
F0.0
sF92.82070006754407
F1745.7260481005824
sF53.8865236115453
F13.349158305102227
sF73.01529665269835
F0.0
sF62.44751044443159
F0.0
sF21.52946633187183
F6573.6651375601095
sF49.757297846624866
F126.00329275356738
sF98.90567870773374
F0.0
sF71.76657980173724
F0.0
sF20.902674031332392
F6897.248142178798
sF64.17746868896424
F0.0
sF92.54226834884797
F2283.8592917785377
sF99.74579766455234
F0.0
sF60.03186493056725
F0.0
sF78.50269528902437
F0.0
sF75.40674900103372
F0.0
sF60.25740610478822
F0.0
sF64.5127676022176
F0.0
sF98.50346056722954
F0.0
sF76.2716802819239
F0.0
sF71.46372766719841
F0.0
sF58.79370789736376
F0.0
sF6.090739210395773
F0.0
sF94.02854934984029
F34.76683751170026
sF98.18714958697677
F0.0
sF27.021022947244298
F3463.1638445612616
sF91.99086127268436
F7026.199866010778
sF72.64125210360547
F0.0
sF85.91365256020717
F0.0
sF61.68889724506419
F0.0
sF92.93001010575419
F1562.5262756338532
sF42.87346759928092
F259.8058581501164
sF82.22584772920465
F0.0
sF49.66729103280915
F129.7109131602635
sF91.74260256511519
F7026.199866010778
sF55.031580082717916
F0.0
sF27.31181061630828
F13381.230383738019
sF93.85988322816951
F232.2951339650588
sF18.50819896384347
F0.0
sF88.25557427063576
F3454.1055093486393
sF24.271970056708554
F5687.681780473473
sF51.954676220286245
F49.708224039571746
sF17.95400757362558
F0.0
sF42.01986209467616
F259.8058581501164
sF8.49328112688292
F0.0
sF75.00356119836167
F0.0
sF65.8273832353197
F0.0
sF97.33110643809776
F1.3344404581709406
sF27.763692475762497
F12575.377709618795
sF44.262324786433076
F259.8058581501164
sF74.46272986460123
F0.0
sF63.87163900169468
F0.0
sF40.98748375492021
F259.8058581501164
sF76.57268489750489
F0.0
sF96.59412019530714
F4.62120746572517
sF29.622328146132517
F9260.824372624738
sF47.21426034903212
F607.0609677124413
sF79.8860710858606
F0.0
sF54.1932492768738
F10201.07823463558
sF43.843258570915054
F259.8058581501164
sF61.496686109109234
F0.0
sF42.47628528587827
F259.8058581501164
sF82.87673500945058
F0.0
sF42.283521465908684
F259.8058581501164
sF53.353010008596115
F15.382509038658668
sF70.28838714663829
F0.0
sF72.61989968433473
F0.0
sF65.01818474651861
F0.0
sF25.85455996043412
F3798.213787492318
sF49.22019812997699
F148.8072717042003
sF82.96102620376915
F0.0
sF98.52679504088286
F0.0
sF98.19805641625972
F0.0
sF94.76913205396639
F21.274357903430488
sF29.02704614398849
F10322.406251264885
sF48.38491744906531
F187.5916354606914
sF78.3219907741773
F0.0
sF75.53256119240517
F0.0
sF80.88153049081585
F0.0
sF80.62512187645913
F0.0
ssS'9'
p37
(dp38
F76.25613408326426
F0.0
sF78.61599735368887
F0.0
sF26.384956516508797
F0.0
sF50.58436622755449
F62.1152469593903
sF1.459764019123333
F0.0
sF94.44842658032307
F0.0
sF49.865875916801414
F83.19329561141468
sF48.7812354972746
F9.541358817782267
sF78.2766434999888
F0.0
sF42.21583652331117
F0.0
sF9.62694201819348
F0.0
sF88.90768723178076
F0.0
sF64.24115285310292
F0.0
sF95.55933687493766
F0.0
sF25.646660662679604
F0.0
sF98.84040886409127
F0.0
sF84.6845126546607
F0.0
sF34.66964897031194
F0.0
sF90.15263431158893
F0.0
sF89.67862308404898
F0.0
sF94.14630509019389
F0.0
sF59.72287184555682
F0.0
sF99.90778028072856
F0.0
sF27.181725725356543
F0.0
sF14.014807489020424
F0.0
sF19.97902814892884
F0.0
sF90.66107727651922
F0.0
sF100.0
F0.0
sF92.82070006754407
F0.0
sF53.8865236115453
F20892.489653147506
sF73.01529665269835
F0.0
sF62.44751044443159
F0.0
sF21.52946633187183
F0.0
sF49.757297846624866
F830.8135987731524
sF98.90567870773374
F0.0
sF71.76657980173724
F0.0
sF20.902674031332392
F0.0
sF64.17746868896424
F0.0
sF92.54226834884797
F0.0
sF99.74579766455234
F0.0
sF60.03186493056725
F0.0
sF78.50269528902437
F0.0
sF75.40674900103372
F0.0
sF60.25740610478822
F0.0
sF64.5127676022176
F0.0
sF98.50346056722954
F0.0
sF76.2716802819239
F0.0
sF71.46372766719841
F0.0
sF58.79370789736376
F0.0
sF6.090739210395773
F0.0
sF94.02854934984029
F0.0
sF98.18714958697677
F0.0
sF27.021022947244298
F0.0
sF91.99086127268436
F0.0
sF72.64125210360547
F0.0
sF85.91365256020717
F0.0
sF61.68889724506419
F0.0
sF92.93001010575419
F0.0
sF42.87346759928092
F934.5425838321594
sF82.22584772920465
F0.0
sF49.66729103280915
F22.659825785507458
sF91.74260256511519
F0.0
sF55.031580082717916
F0.0
sF27.31181061630828
F0.0
sF93.85988322816951
F0.0
sF18.50819896384347
F0.0
sF88.25557427063576
F0.0
sF24.271970056708554
F0.0
sF51.954676220286245
F236.77863114001184
sF17.95400757362558
F0.0
sF42.01986209467616
F0.0
sF8.49328112688292
F0.0
sF75.00356119836167
F0.0
sF65.8273832353197
F0.0
sF97.33110643809776
F0.0
sF27.763692475762497
F0.0
sF44.262324786433076
F9.541358817782267
sF74.46272986460123
F0.0
sF63.87163900169468
F0.0
sF40.98748375492021
F0.0
sF76.57268489750489
F0.0
sF96.59412019530714
F0.0
sF29.622328146132517
F0.0
sF47.21426034903212
F9.541358817782267
sF79.8860710858606
F0.0
sF54.1932492768738
F0.0
sF43.843258570915054
F9.541358817782267
sF61.496686109109234
F0.0
sF42.47628528587827
F0.07195535204153862
sF82.87673500945058
F0.0
sF42.283521465908684
F7822.643653317284
sF53.353010008596115
F99.99233784254791
sF70.28838714663829
F0.0
sF72.61989968433473
F0.0
sF65.01818474651861
F0.0
sF25.85455996043412
F0.0
sF49.22019812997699
F9.541358817782267
sF82.96102620376915
F0.0
sF98.52679504088286
F0.0
sF98.19805641625972
F0.0
sF94.76913205396639
F0.0
sF29.02704614398849
F0.0
sF48.38491744906531
F9.541358817782267
sF78.3219907741773
F0.0
sF75.53256119240517
F0.0
sF80.88153049081585
F0.0
sF80.62512187645913
F0.0
ssS'8'
p39
(dp40
F76.25613408326426
F0.0
sF78.61599735368887
F0.0
sF26.384956516508797
F0.0
sF50.58436622755449
F0.0
sF1.459764019123333
F0.0
sF94.44842658032307
F6.247960599397028
sF49.865875916801414
F0.0
sF48.7812354972746
F0.0
sF78.2766434999888
F0.0
sF42.21583652331117
F0.0
sF9.62694201819348
F0.0
sF88.90768723178076
F0.0
sF64.24115285310292
F0.0
sF95.55933687493766
F25.87552060219272
sF25.646660662679604
F0.0
sF98.84040886409127
F0.0
sF84.6845126546607
F0.0
sF34.66964897031194
F0.0
sF90.15263431158893
F0.0
sF89.67862308404898
F0.0
sF94.14630509019389
F1.6874734040159496
sF59.72287184555682
F0.0
sF99.90778028072856
F0.0
sF27.181725725356543
F0.0
sF14.014807489020424
F0.0
sF19.97902814892884
F0.0
sF90.66107727651922
F0.0
sF100.0
F0.0
sF92.82070006754407
F0.0
sF53.8865236115453
F0.0
sF73.01529665269835
F0.0
sF62.44751044443159
F0.0
sF21.52946633187183
F0.0
sF49.757297846624866
F0.0
sF98.90567870773374
F0.0
sF71.76657980173724
F0.0
sF20.902674031332392
F0.0
sF64.17746868896424
F0.0
sF92.54226834884797
F0.0
sF99.74579766455234
F0.0
sF60.03186493056725
F0.0
sF78.50269528902437
F0.0
sF75.40674900103372
F0.0
sF60.25740610478822
F0.0
sF64.5127676022176
F0.0
sF98.50346056722954
F0.0
sF76.2716802819239
F0.0
sF71.46372766719841
F0.0
sF58.79370789736376
F0.0
sF6.090739210395773
F0.0
sF94.02854934984029
F4764.197826894399
sF98.18714958697677
F100.70713708624233
sF27.021022947244298
F0.0
sF91.99086127268436
F0.0
sF72.64125210360547
F0.0
sF85.91365256020717
F0.0
sF61.68889724506419
F0.0
sF92.93001010575419
F0.0
sF42.87346759928092
F0.0
sF82.22584772920465
F0.0
sF49.66729103280915
F0.0
sF91.74260256511519
F0.0
sF55.031580082717916
F0.0
sF27.31181061630828
F0.0
sF93.85988322816951
F0.0
sF18.50819896384347
F0.0
sF88.25557427063576
F0.0
sF24.271970056708554
F0.0
sF51.954676220286245
F0.0
sF17.95400757362558
F0.0
sF42.01986209467616
F0.0
sF8.49328112688292
F0.0
sF75.00356119836167
F0.0
sF65.8273832353197
F0.0
sF97.33110643809776
F66.47975259026978
sF27.763692475762497
F0.0
sF44.262324786433076
F0.0
sF74.46272986460123
F0.0
sF63.87163900169468
F0.0
sF40.98748375492021
F0.0
sF76.57268489750489
F0.0
sF96.59412019530714
F48.20126750748178
sF29.622328146132517
F0.0
sF47.21426034903212
F0.0
sF79.8860710858606
F0.0
sF54.1932492768738
F0.0
sF43.843258570915054
F0.0
sF61.496686109109234
F0.0
sF42.47628528587827
F0.0
sF82.87673500945058
F0.0
sF42.283521465908684
F0.0
sF53.353010008596115
F0.0
sF70.28838714663829
F0.0
sF72.61989968433473
F0.0
sF65.01818474651861
F0.0
sF25.85455996043412
F0.0
sF49.22019812997699
F0.0
sF82.96102620376915
F0.0
sF98.52679504088286
F0.0
sF98.19805641625972
F0.0
sF94.76913205396639
F11.45270289976845
sF29.02704614398849
F0.0
sF48.38491744906531
F0.0
sF78.3219907741773
F0.0
sF75.53256119240517
F0.0
sF80.88153049081585
F0.0
sF80.62512187645913
F0.0
ss.