(dp0
S'1'
p1
(dp2
F70.75854692767031
F0.0
sF100.0
F0.0
sF85.70629317822616
F0.0
sF76.99483540499104
F0.0
sF76.58710978380334
F0.0
sF1.1308940848602123
F0.0
sF85.20753633756169
F0.0
sF71.12462021087455
F0.0
ssS'3'
p3
(dp4
F70.75854692767031
F0.0
sF100.0
F0.0
sF85.70629317822616
F0.0
sF76.99483540499104
F0.0
sF76.58710978380334
F0.0
sF1.1308940848602123
F0.0
sF85.20753633756169
F0.0
sF71.12462021087455
F0.0
ssS'2'
p5
(dp6
F70.75854692767031
F0.0
sF100.0
F0.0
sF85.70629317822616
F0.0
sF76.99483540499104
F0.0
sF76.58710978380334
F0.0
sF1.1308940848602123
F0.0
sF85.20753633756169
F0.0
sF71.12462021087455
F0.0
ssS'5'
p7
(dp8
F70.75854692767031
F0.0
sF100.0
F0.0
sF85.70629317822616
F0.0
sF76.99483540499104
F0.0
sF76.58710978380334
F0.0
sF1.1308940848602123
F0.0
sF85.20753633756169
F0.0
sF71.12462021087455
F0.0
ss.