(dp0
S'11'
p1
(dp2
F19.034776708808156
F0.0
sF35.79394156073233
F289.8986155979007
sF24.334140837059493
F3857.522367105482
sF24.053056794883272
F3843.2919965045253
sF19.918514349432392
F3646.2192673557493
sF97.33753545918225
F1.8795265774316487
sF97.13297334462966
F1452.9111895508636
sF89.65840980650496
F11.065587146536405
sF20.048404872917992
F3640.5494980823983
sF59.49008377167864
F11.065587146536405
sF79.47087957659718
F11.065587146536405
sF48.250015810474544
F127.1106969637235
sF38.21155607667577
F1416.254091613948
sF44.15349144215134
F728.8424953286989
sF8.405108633046991
F0.0
sF48.73078868903875
F124.65577795552193
sF58.5433854068355
F11.065587146536405
sF88.96086317628564
F11.065587146536405
sF90.05597911810094
F11.065587146536405
sF2.3190816184917917
F0.0
sF19.162306430043518
F0.0
sF14.229199722617338
F0.0
sF83.3373527042863
F11.065587146536405
sF89.42812633217362
F11.065587146536405
sF37.77757479526073
F203.3122930477866
sF88.01242372659374
F11.065587146536405
sF17.310997811011514
F0.0
sF16.017092572030585
F0.0
sF33.86721970211746
F374.0007355918947
sF88.96831093812413
F11.065587146536405
sF92.15546004589297
F11.065587146536405
sF77.79401755943756
F11.065587146536405
sF72.99873716048683
F11.065587146536405
sF59.909421871227615
F11.065587146536405
sF82.41331863149519
F11.065587146536405
sF42.43531991712278
F3908.441686613766
sF100.0
F0.0
sF16.820138012293
F0.0
sF80.74520509334164
F11.065587146536405
sF91.33972596228277
F11.065587146536405
sF31.788825156107553
F464.7234243504323
sF28.77926172349993
F596.0919785644098
sF88.42672410715662
F11.065587146536405
sF89.15279078895148
F11.065587146536405
sF17.433108552829875
F0.0
sF79.7389344919446
F11.065587146536405
sF49.63084579964825
F2313.8268953679512
sF7.287790127341861
F0.0
sF33.90213641990708
F372.4766079778289
sF92.3042115004906
F11.065587146536405
sF35.135924076521285
F318.6213215597503
sF88.95248249290074
F11.065587146536405
sF10.021259025900749
F2.2315739872680367
sF27.06157820155574
F671.0694980378796
sF98.88685399530031
F0.0
sF82.90984149303256
F11.065587146536405
sF87.9797194806819
F11.065587146536405
sF13.959203496438036
F0.0
sF29.89709241530415
F547.2982564426949
sF82.33059531944141
F11.065587146536405
sF89.01695864130512
F11.065587146536405
sF80.38184985886326
F11.065587146536405
sF53.75781367654624
F11.065587146536405
sF44.26556718954966
F509.71422209723767
sF78.21095766131324
F11.065587146536405
sF40.2704348161395
F5846.596141540107
sF10.387930744894282
F0.0
sF97.07675852038649
F11.065587146536405
sF47.09566174857417
F187.3388986230739
sF23.205419364515556
F3800.3788710350523
sF49.68514602545497
F11.065587146536405
sF84.45701545988307
F11.065587146536405
sF88.94570913820448
F11.065587146536405
sF41.450973361117946
F4006.0207647072903
sF30.031578061326393
F541.4279083752455
sF89.50941721611952
F11.065587146536405
sF47.763782454709855
F138.26521651250965
sF19.00428770740523
F0.0
ssS'10'
p3
(dp4
F19.034776708808156
F0.0
sF35.79394156073233
F0.0
sF24.334140837059493
F0.0
sF24.053056794883272
F0.0
sF19.918514349432392
F0.0
sF97.33753545918225
F0.0
sF97.13297334462966
F0.0
sF89.65840980650496
F0.0
sF20.048404872917992
F404.04682508331433
sF59.49008377167864
F0.0
sF79.47087957659718
F0.0
sF48.250015810474544
F0.0
sF38.21155607667577
F206.81203394980295
sF44.15349144215134
F0.0
sF8.405108633046991
F0.0
sF48.73078868903875
F0.0
sF58.5433854068355
F0.0
sF88.96086317628564
F0.0
sF90.05597911810094
F0.0
sF2.3190816184917917
F0.0
sF19.162306430043518
F0.0
sF14.229199722617338
F0.0
sF83.3373527042863
F0.0
sF89.42812633217362
F0.0
sF37.77757479526073
F0.0
sF88.01242372659374
F0.0
sF17.310997811011514
F0.0
sF16.017092572030585
F0.0
sF33.86721970211746
F0.0
sF88.96831093812413
F0.0
sF92.15546004589297
F0.0
sF77.79401755943756
F0.0
sF72.99873716048683
F0.0
sF59.909421871227615
F0.0
sF82.41331863149519
F0.0
sF42.43531991712278
F0.0
sF100.0
F0.0
sF16.820138012293
F0.0
sF80.74520509334164
F0.0
sF91.33972596228277
F0.0
sF31.788825156107553
F0.0
sF28.77926172349993
F0.0
sF88.42672410715662
F0.0
sF89.15279078895148
F0.0
sF17.433108552829875
F0.0
sF79.7389344919446
F0.0
sF49.63084579964825
F0.0
sF7.287790127341861
F0.0
sF33.90213641990708
F0.0
sF92.3042115004906
F0.0
sF35.135924076521285
F0.0
sF88.95248249290074
F0.0
sF10.021259025900749
F0.0
sF27.06157820155574
F0.0
sF98.88685399530031
F0.0
sF82.90984149303256
F0.0
sF87.9797194806819
F0.0
sF13.959203496438036
F0.0
sF29.89709241530415
F0.0
sF82.33059531944141
F0.0
sF89.01695864130512
F0.0
sF80.38184985886326
F0.0
sF53.75781367654624
F0.0
sF44.26556718954966
F0.0
sF78.21095766131324
F0.0
sF40.2704348161395
F868.7435757272292
sF10.387930744894282
F0.0
sF97.07675852038649
F0.0
sF47.09566174857417
F0.0
sF23.205419364515556
F0.0
sF49.68514602545497
F0.0
sF84.45701545988307
F0.0
sF88.94570913820448
F0.0
sF41.450973361117946
F5768.450362265812
sF30.031578061326393
F0.0
sF89.50941721611952
F0.0
sF47.763782454709855
F0.0
sF19.00428770740523
F0.0
ssS'13'
p5
(dp6
F19.034776708808156
F0.0
sF35.79394156073233
F0.0
sF24.334140837059493
F0.0
sF24.053056794883272
F0.0
sF19.918514349432392
F0.0
sF97.33753545918225
F0.6265088591438829
sF97.13297334462966
F816.7088337171961
sF89.65840980650496
F0.0
sF20.048404872917992
F202.02341254165717
sF59.49008377167864
F0.0
sF79.47087957659718
F0.0
sF48.250015810474544
F0.0
sF38.21155607667577
F301.30651873449347
sF44.15349144215134
F0.0
sF8.405108633046991
F0.0
sF48.73078868903875
F0.0
sF58.5433854068355
F0.0
sF88.96086317628564
F0.0
sF90.05597911810094
F0.0
sF2.3190816184917917
F0.0
sF19.162306430043518
F0.0
sF14.229199722617338
F0.0
sF83.3373527042863
F0.0
sF89.42812633217362
F0.0
sF37.77757479526073
F0.0
sF88.01242372659374
F0.0
sF17.310997811011514
F0.0
sF16.017092572030585
F0.0
sF33.86721970211746
F0.0
sF88.96831093812413
F0.0
sF92.15546004589297
F0.0
sF77.79401755943756
F0.0
sF72.99873716048683
F0.0
sF59.909421871227615
F0.0
sF82.41331863149519
F0.0
sF42.43531991712278
F0.0
sF100.0
F0.0
sF16.820138012293
F0.0
sF80.74520509334164
F0.0
sF91.33972596228277
F0.0
sF31.788825156107553
F0.0
sF28.77926172349993
F0.0
sF88.42672410715662
F0.0
sF89.15279078895148
F0.0
sF17.433108552829875
F0.0
sF79.7389344919446
F0.0
sF49.63084579964825
F0.0
sF7.287790127341861
F0.0
sF33.90213641990708
F0.0
sF92.3042115004906
F0.0
sF35.135924076521285
F0.0
sF88.95248249290074
F0.0
sF10.021259025900749
F0.0
sF27.06157820155574
F0.0
sF98.88685399530031
F0.0
sF82.90984149303256
F0.0
sF87.9797194806819
F0.0
sF13.959203496438036
F0.0
sF29.89709241530415
F0.0
sF82.33059531944141
F0.0
sF89.01695864130512
F0.0
sF80.38184985886326
F0.0
sF53.75781367654624
F0.0
sF44.26556718954966
F0.0
sF78.21095766131324
F0.0
sF40.2704348161395
F5348.158094727254
sF10.387930744894282
F0.0
sF97.07675852038649
F11.065587146536405
sF47.09566174857417
F0.0
sF23.205419364515556
F0.0
sF49.68514602545497
F0.0
sF84.45701545988307
F0.0
sF88.94570913820448
F0.0
sF41.450973361117946
F0.0
sF30.031578061326393
F0.0
sF89.50941721611952
F0.0
sF47.763782454709855
F0.0
sF19.00428770740523
F0.0
ssS'12'
p7
(dp8
F19.034776708808156
F0.0
sF35.79394156073233
F0.0
sF24.334140837059493
F0.0
sF24.053056794883272
F0.0
sF19.918514349432392
F0.0
sF97.33753545918225
F0.0
sF97.13297334462966
F0.0
sF89.65840980650496
F0.0
sF20.048404872917992
F0.0
sF59.49008377167864
F0.0
sF79.47087957659718
F4.45183701046521
sF48.250015810474544
F237.64226376414445
sF38.21155607667577
F166.68843034670758
sF44.15349144215134
F375.68907325763917
sF8.405108633046991
F0.0
sF48.73078868903875
F150.31144066124224
sF58.5433854068355
F0.0
sF88.96086317628564
F0.0
sF90.05597911810094
F0.0
sF2.3190816184917917
F0.0
sF19.162306430043518
F0.0
sF14.229199722617338
F0.0
sF83.3373527042863
F7.294501429678948
sF89.42812633217362
F0.0
sF37.77757479526073
F0.0
sF88.01242372659374
F480.01799546188425
sF17.310997811011514
F0.0
sF16.017092572030585
F0.0
sF33.86721970211746
F0.0
sF88.96831093812413
F0.0
sF92.15546004589297
F447.14214823018943
sF77.79401755943756
F3.525531542591479
sF72.99873716048683
F0.0
sF59.909421871227615
F871.1593430466369
sF82.41331863149519
F6.615143603019391
sF42.43531991712278
F179.34138459898537
sF100.0
F0.0
sF16.820138012293
F0.0
sF80.74520509334164
F5.388732130465869
sF91.33972596228277
F0.0
sF31.788825156107553
F0.0
sF28.77926172349993
F0.0
sF88.42672410715662
F1.3092270159310861
sF89.15279078895148
F0.0
sF17.433108552829875
F0.0
sF79.7389344919446
F4.64891329810228
sF49.63084579964825
F113.63571860945501
sF7.287790127341861
F0.0
sF33.90213641990708
F0.0
sF92.3042115004906
F1.8795265774316487
sF35.135924076521285
F0.0
sF88.95248249290074
F0.0
sF10.021259025900749
F0.0
sF27.06157820155574
F0.0
sF98.88685399530031
F0.0
sF82.90984149303256
F6.980191496850753
sF87.9797194806819
F10.70760955700402
sF13.959203496438036
F0.0
sF29.89709241530415
F0.0
sF82.33059531944141
F6.554324709922539
sF89.01695864130512
F0.0
sF80.38184985886326
F5.1215902255629695
sF53.75781367654624
F360.80819747642784
sF44.26556718954966
F383.341794529134
sF78.21095766131324
F3.525531542591479
sF40.2704348161395
F0.0
sF10.387930744894282
F0.0
sF97.07675852038649
F0.0
sF47.09566174857417
F579.5636713783693
sF23.205419364515556
F0.0
sF49.68514602545497
F380.4703654460479
sF84.45701545988307
F8.117687152621244
sF88.94570913820448
F0.0
sF41.450973361117946
F0.0
sF30.031578061326393
F0.0
sF89.50941721611952
F0.0
sF47.763782454709855
F349.8646437775168
sF19.00428770740523
F0.0
ssS'1'
p9
(dp10
F19.034776708808156
F0.0
sF35.79394156073233
F0.0
sF24.334140837059493
F0.0
sF24.053056794883272
F0.0
sF19.918514349432392
F0.0
sF97.33753545918225
F0.0
sF97.13297334462966
F0.0
sF89.65840980650496
F371.1122574666729
sF20.048404872917992
F0.0
sF59.49008377167864
F0.0
sF79.47087957659718
F0.0
sF48.250015810474544
F0.0
sF38.21155607667577
F0.0
sF44.15349144215134
F0.0
sF8.405108633046991
F0.0
sF48.73078868903875
F0.0
sF58.5433854068355
F0.0
sF88.96086317628564
F0.0
sF90.05597911810094
F312.02540274563466
sF2.3190816184917917
F0.0
sF19.162306430043518
F0.0
sF14.229199722617338
F0.0
sF83.3373527042863
F0.0
sF89.42812633217362
F371.1122574666729
sF37.77757479526073
F0.0
sF88.01242372659374
F0.0
sF17.310997811011514
F0.0
sF16.017092572030585
F0.0
sF33.86721970211746
F0.0
sF88.96831093812413
F0.0
sF92.15546004589297
F1081.7989320841907
sF77.79401755943756
F0.0
sF72.99873716048683
F0.0
sF59.909421871227615
F0.0
sF82.41331863149519
F0.0
sF42.43531991712278
F0.0
sF100.0
F0.0
sF16.820138012293
F0.0
sF80.74520509334164
F0.0
sF91.33972596228277
F121.23461213791298
sF31.788825156107553
F0.0
sF28.77926172349993
F0.0
sF88.42672410715662
F0.0
sF89.15279078895148
F0.0
sF17.433108552829875
F0.0
sF79.7389344919446
F0.0
sF49.63084579964825
F0.0
sF7.287790127341861
F0.0
sF33.90213641990708
F0.0
sF92.3042115004906
F0.0
sF35.135924076521285
F0.0
sF88.95248249290074
F0.0
sF10.021259025900749
F0.0
sF27.06157820155574
F0.0
sF98.88685399530031
F0.0
sF82.90984149303256
F0.0
sF87.9797194806819
F0.0
sF13.959203496438036
F0.0
sF29.89709241530415
F0.0
sF82.33059531944141
F0.0
sF89.01695864130512
F0.0
sF80.38184985886326
F0.0
sF53.75781367654624
F0.0
sF44.26556718954966
F0.0
sF78.21095766131324
F0.0
sF40.2704348161395
F0.0
sF10.387930744894282
F0.0
sF97.07675852038649
F0.0
sF47.09566174857417
F0.0
sF23.205419364515556
F0.0
sF49.68514602545497
F0.0
sF84.45701545988307
F0.0
sF88.94570913820448
F1572.5489104131639
sF41.450973361117946
F0.0
sF30.031578061326393
F0.0
sF89.50941721611952
F371.1122574666729
sF47.763782454709855
F0.0
sF19.00428770740523
F0.0
ssS'0'
p11
(dp12
F19.034776708808156
F0.0
sF35.79394156073233
F184.14182842047703
sF24.334140837059493
F51.217616019478676
sF24.053056794883272
F47.95727355579327
sF19.918514349432392
F0.0
sF97.33753545918225
F0.0
sF97.13297334462966
F0.07638688353712593
sF89.65840980650496
F0.0
sF20.048404872917992
F1.5066226672694796
sF59.49008377167864
F2882.681973008876
sF79.47087957659718
F2882.681973008876
sF48.250015810474544
F1467.376651883727
sF38.21155607667577
F360.13182943198797
sF44.15349144215134
F491.6071714357375
sF8.405108633046991
F0.0
sF48.73078868903875
F1579.2186796896588
sF58.5433854068355
F2882.681973008876
sF88.96086317628564
F0.0
sF90.05597911810094
F0.0
sF2.3190816184917917
F0.0
sF19.162306430043518
F0.0
sF14.229199722617338
F0.0
sF83.3373527042863
F0.0
sF89.42812633217362
F0.0
sF37.77757479526073
F207.1503336946967
sF88.01242372659374
F630.741108999412
sF17.310997811011514
F0.0
sF16.017092572030585
F0.0
sF33.86721970211746
F161.79344804741177
sF88.96831093812413
F0.0
sF92.15546004589297
F19.31263548535759
sF77.79401755943756
F2882.681973008876
sF72.99873716048683
F2882.681973008876
sF59.909421871227615
F2882.681973008876
sF82.41331863149519
F0.0
sF42.43531991712278
F310.70364033167766
sF100.0
F0.0
sF16.820138012293
F0.0
sF80.74520509334164
F1678.5225345562405
sF91.33972596228277
F0.0
sF31.788825156107553
F137.6857899171791
sF28.77926172349993
F102.77734267657121
sF88.42672410715662
F0.5466800220237562
sF89.15279078895148
F0.0
sF17.433108552829875
F0.0
sF79.7389344919446
F2882.681973008876
sF49.63084579964825
F2044.123236820562
sF7.287790127341861
F0.0
sF33.90213641990708
F162.1984531014897
sF92.3042115004906
F1.8795265774316487
sF35.135924076521285
F176.50936971164822
sF88.95248249290074
F0.0
sF10.021259025900749
F0.0
sF27.06157820155574
F82.85363415719411
sF98.88685399530031
F0.0
sF82.90984149303256
F0.0
sF87.9797194806819
F620.0094549985076
sF13.959203496438036
F0.0
sF29.89709241530415
F115.74325437857834
sF82.33059531944141
F0.0
sF89.01695864130512
F0.0
sF80.38184985886326
F2882.681973008876
sF53.75781367654624
F2882.681973008876
sF44.26556718954966
F507.62103252770794
sF78.21095766131324
F2882.681973008876
sF40.2704348161395
F236.450687722157
sF10.387930744894282
F0.0
sF97.07675852038649
F0.09737843049055346
sF47.09566174857417
F1084.7504465831862
sF23.205419364515556
F38.12538026636758
sF49.68514602545497
F3066.061266662231
sF84.45701545988307
F0.0
sF88.94570913820448
F0.0
sF41.450973361117946
F261.3774324417813
sF30.031578061326393
F117.3031766676124
sF89.50941721611952
F0.0
sF47.763782454709855
F1348.3330157910984
sF19.00428770740523
F0.0
ssS'3'
p13
(dp14
F19.034776708808156
F0.0
sF35.79394156073233
F0.0
sF24.334140837059493
F1533.6996109086538
sF24.053056794883272
F0.0
sF19.918514349432392
F0.0
sF97.33753545918225
F0.0
sF97.13297334462966
F0.0
sF89.65840980650496
F0.0
sF20.048404872917992
F0.0
sF59.49008377167864
F0.0
sF79.47087957659718
F1015.4005014693607
sF48.250015810474544
F0.0
sF38.21155607667577
F0.0
sF44.15349144215134
F0.0
sF8.405108633046991
F0.0
sF48.73078868903875
F0.0
sF58.5433854068355
F0.0
sF88.96086317628564
F0.0
sF90.05597911810094
F0.0
sF2.3190816184917917
F0.0
sF19.162306430043518
F0.0
sF14.229199722617338
F0.0
sF83.3373527042863
F0.0
sF89.42812633217362
F0.0
sF37.77757479526073
F0.0
sF88.01242372659374
F0.0
sF17.310997811011514
F0.0
sF16.017092572030585
F0.0
sF33.86721970211746
F0.0
sF88.96831093812413
F0.0
sF92.15546004589297
F23.32807369740394
sF77.79401755943756
F0.0
sF72.99873716048683
F0.0
sF59.909421871227615
F0.0
sF82.41331863149519
F979.1588987876153
sF42.43531991712278
F0.0
sF100.0
F0.0
sF16.820138012293
F0.0
sF80.74520509334164
F0.0
sF91.33972596228277
F0.0
sF31.788825156107553
F0.0
sF28.77926172349993
F0.0
sF88.42672410715662
F0.0
sF89.15279078895148
F0.0
sF17.433108552829875
F0.0
sF79.7389344919446
F23.06104132125284
sF49.63084579964825
F0.0
sF7.287790127341861
F0.0
sF33.90213641990708
F0.0
sF92.3042115004906
F0.0
sF35.135924076521285
F3915.583239981184
sF88.95248249290074
F0.0
sF10.021259025900749
F0.0
sF27.06157820155574
F0.0
sF98.88685399530031
F0.0
sF82.90984149303256
F0.0
sF87.9797194806819
F247.8214519956559
sF13.959203496438036
F0.0
sF29.89709241530415
F0.0
sF82.33059531944141
F0.0
sF89.01695864130512
F0.0
sF80.38184985886326
F0.0
sF53.75781367654624
F0.0
sF44.26556718954966
F0.0
sF78.21095766131324
F0.0
sF40.2704348161395
F0.0
sF10.387930744894282
F0.0
sF97.07675852038649
F0.0
sF47.09566174857417
F0.0
sF23.205419364515556
F0.0
sF49.68514602545497
F0.0
sF84.45701545988307
F0.0
sF88.94570913820448
F0.0
sF41.450973361117946
F0.0
sF30.031578061326393
F0.0
sF89.50941721611952
F0.0
sF47.763782454709855
F0.0
sF19.00428770740523
F0.0
ssS'2'
p15
(dp16
F19.034776708808156
F0.0
sF35.79394156073233
F3915.583239981184
sF24.334140837059493
F3067.399221817308
sF24.053056794883272
F0.0
sF19.918514349432392
F0.0
sF97.33753545918225
F0.6265088591438829
sF97.13297334462966
F1452.9111895508636
sF89.65840980650496
F0.0
sF20.048404872917992
F0.0
sF59.49008377167864
F1038.4615427906135
sF79.47087957659718
F1038.4615427906135
sF48.250015810474544
F299.64044237966107
sF38.21155607667577
F3915.583239981184
sF44.15349144215134
F127.76256898927079
sF8.405108633046991
F0.0
sF48.73078868903875
F342.7307604686991
sF58.5433854068355
F1038.4615427906135
sF88.96086317628564
F0.0
sF90.05597911810094
F59.08685472103821
sF2.3190816184917917
F0.0
sF19.162306430043518
F0.0
sF14.229199722617338
F0.0
sF83.3373527042863
F0.0
sF89.42812633217362
F0.0
sF37.77757479526073
F3915.583239981184
sF88.01242372659374
F0.0
sF17.310997811011514
F0.0
sF16.017092572030585
F0.0
sF33.86721970211746
F0.0
sF88.96831093812413
F0.0
sF92.15546004589297
F1452.9111895508636
sF77.79401755943756
F1038.4615427906135
sF72.99873716048683
F1038.4615427906135
sF59.909421871227615
F1038.4615427906135
sF82.41331863149519
F234.79584743952967
sF42.43531991712278
F170.9614488533822
sF100.0
F0.0
sF16.820138012293
F0.0
sF80.74520509334164
F0.0
sF91.33972596228277
F249.8776453287599
sF31.788825156107553
F0.0
sF28.77926172349993
F0.0
sF88.42672410715662
F0.0
sF89.15279078895148
F0.0
sF17.433108552829875
F0.0
sF79.7389344919446
F0.0
sF49.63084579964825
F1297.7016129015813
sF7.287790127341861
F0.0
sF33.90213641990708
F0.0
sF92.3042115004906
F1452.9111895508636
sF35.135924076521285
F3915.583239981184
sF88.95248249290074
F0.0
sF10.021259025900749
F0.0
sF27.06157820155574
F0.0
sF98.88685399530031
F0.0
sF82.90984149303256
F0.0
sF87.9797194806819
F96.55895783477662
sF13.959203496438036
F0.0
sF29.89709241530415
F0.0
sF82.33059531944141
F0.0
sF89.01695864130512
F0.0
sF80.38184985886326
F0.0
sF53.75781367654624
F1038.4615427906135
sF44.26556718954966
F131.62481688052344
sF78.21095766131324
F1038.4615427906135
sF40.2704348161395
F925.4808462494225
sF10.387930744894282
F0.0
sF97.07675852038649
F1452.9111895508636
sF47.09566174857417
F244.20416986903078
sF23.205419364515556
F0.0
sF49.68514602545497
F1038.4615427906135
sF84.45701545988307
F0.0
sF88.94570913820448
F0.0
sF41.450973361117946
F374.28205227733963
sF30.031578061326393
F0.0
sF89.50941721611952
F0.0
sF47.763782454709855
F272.6588673395045
sF19.00428770740523
F0.0
ssS'5'
p17
(dp18
F19.034776708808156
F0.0
sF35.79394156073233
F0.0
sF24.334140837059493
F0.0
sF24.053056794883272
F0.0
sF19.918514349432392
F0.0
sF97.33753545918225
F0.0
sF97.13297334462966
F0.0
sF89.65840980650496
F0.0
sF20.048404872917992
F0.0
sF59.49008377167864
F0.0
sF79.47087957659718
F0.0
sF48.250015810474544
F0.0
sF38.21155607667577
F0.0
sF44.15349144215134
F0.0
sF8.405108633046991
F0.0
sF48.73078868903875
F0.0
sF58.5433854068355
F0.0
sF88.96086317628564
F0.0
sF90.05597911810094
F0.0
sF2.3190816184917917
F0.0
sF19.162306430043518
F0.0
sF14.229199722617338
F0.0
sF83.3373527042863
F0.0
sF89.42812633217362
F0.0
sF37.77757479526073
F0.0
sF88.01242372659374
F0.0
sF17.310997811011514
F0.0
sF16.017092572030585
F0.0
sF33.86721970211746
F0.0
sF88.96831093812413
F0.0
sF92.15546004589297
F43.19178423149707
sF77.79401755943756
F0.0
sF72.99873716048683
F0.0
sF59.909421871227615
F0.0
sF82.41331863149519
F0.0
sF42.43531991712278
F0.0
sF100.0
F0.0
sF16.820138012293
F0.0
sF80.74520509334164
F1417.9796939675928
sF91.33972596228277
F0.0
sF31.788825156107553
F0.0
sF28.77926172349993
F0.0
sF88.42672410715662
F0.0
sF89.15279078895148
F0.0
sF17.433108552829875
F0.0
sF79.7389344919446
F0.0
sF49.63084579964825
F0.0
sF7.287790127341861
F0.0
sF33.90213641990708
F0.0
sF92.3042115004906
F0.0
sF35.135924076521285
F0.0
sF88.95248249290074
F0.0
sF10.021259025900749
F0.0
sF27.06157820155574
F0.0
sF98.88685399530031
F0.0
sF82.90984149303256
F0.0
sF87.9797194806819
F620.0094549985076
sF13.959203496438036
F0.0
sF29.89709241530415
F0.0
sF82.33059531944141
F0.0
sF89.01695864130512
F0.0
sF80.38184985886326
F2882.681973008876
sF53.75781367654624
F0.0
sF44.26556718954966
F0.0
sF78.21095766131324
F0.0
sF40.2704348161395
F0.0
sF10.387930744894282
F0.0
sF97.07675852038649
F0.0
sF47.09566174857417
F0.0
sF23.205419364515556
F0.0
sF49.68514602545497
F0.0
sF84.45701545988307
F0.0
sF88.94570913820448
F0.0
sF41.450973361117946
F0.0
sF30.031578061326393
F0.0
sF89.50941721611952
F0.0
sF47.763782454709855
F0.0
sF19.00428770740523
F0.0
ssS'4'
p19
(dp20
F19.034776708808156
F0.0
sF35.79394156073233
F692.9682550238551
sF24.334140837059493
F192.7437253335819
sF24.053056794883272
F206.97409593453818
sF19.918514349432392
F0.0
sF97.33753545918225
F0.0
sF97.13297334462966
F0.0
sF89.65840980650496
F0.0
sF20.048404872917992
F409.71659435666544
sF59.49008377167864
F640.6166789029913
sF79.47087957659718
F29.9809174208321
sF48.250015810474544
F640.6166789029913
sF38.21155607667577
F1235.280898293767
sF44.15349144215134
F7815.81875161782
sF8.405108633046991
F0.0
sF48.73078868903875
F640.6166789029913
sF58.5433854068355
F640.6166789029913
sF88.96086317628564
F0.0
sF90.05597911810094
F0.0
sF2.3190816184917917
F0.0
sF19.162306430043518
F0.0
sF14.229199722617338
F0.0
sF83.3373527042863
F27.138253001618363
sF89.42812633217362
F0.0
sF37.77757479526073
F779.5545775739693
sF88.01242372659374
F260.30443986379413
sF17.310997811011514
F0.0
sF16.017092572030585
F0.0
sF33.86721970211746
F608.8661350298612
sF88.96831093812413
F0.0
sF92.15546004589297
F170.02965016681304
sF77.79401755943756
F30.90722288870583
sF72.99873716048683
F34.43275443129731
sF59.909421871227615
F2409.873653618277
sF82.41331863149519
F27.81761082827792
sF42.43531991712278
F8091.763791669206
sF100.0
F0.0
sF16.820138012293
F0.0
sF80.74520509334164
F29.04402230083144
sF91.33972596228277
F0.0
sF31.788825156107553
F518.1434462713237
sF28.77926172349993
F386.7748920573461
sF88.42672410715662
F172.56830692996604
sF89.15279078895148
F0.0
sF17.433108552829875
F0.0
sF79.7389344919446
F29.78384113319503
sF49.63084579964825
F640.6166789029913
sF7.287790127341861
F0.0
sF33.90213641990708
F610.390262643927
sF92.3042115004906
F0.6913901576478969
sF35.135924076521285
F664.2455490620056
sF88.95248249290074
F0.0
sF10.021259025900749
F0.0
sF27.06157820155574
F311.79737258387627
sF98.88685399530031
F0.0
sF82.90984149303256
F27.452562934446558
sF87.9797194806819
F23.72514487429329
sF13.959203496438036
F0.0
sF29.89709241530415
F435.568614179061
sF82.33059531944141
F27.878429721374772
sF89.01695864130512
F0.0
sF80.38184985886326
F29.31116420573434
sF53.75781367654624
F1001.4248763794192
sF44.26556718954966
F1054.6734705895985
sF78.21095766131324
F30.90722288870583
sF40.2704348161395
F1233.5923028821794
sF10.387930744894282
F0.0
sF97.07675852038649
F0.0
sF47.09566174857417
F852.8488668783924
sF23.205419364515556
F249.88722140401126
sF49.68514602545497
F640.6166789029913
sF84.45701545988307
F26.315067278676068
sF88.94570913820448
F0.0
sF41.450973361117946
F9300.456326320964
sF30.031578061326393
F441.43896224651047
sF89.50941721611952
F0.0
sF47.763782454709855
F640.6166789029913
sF19.00428770740523
F0.0
ssS'7'
p21
(dp22
F19.034776708808156
F0.0
sF35.79394156073233
F0.0
sF24.334140837059493
F0.0
sF24.053056794883272
F0.0
sF19.918514349432392
F0.0
sF97.33753545918225
F0.0
sF97.13297334462966
F0.0
sF89.65840980650496
F0.0
sF20.048404872917992
F0.0
sF59.49008377167864
F0.0
sF79.47087957659718
F0.0
sF48.250015810474544
F0.0
sF38.21155607667577
F0.0
sF44.15349144215134
F0.0
sF8.405108633046991
F0.0
sF48.73078868903875
F214.20753367194135
sF58.5433854068355
F0.0
sF88.96086317628564
F0.0
sF90.05597911810094
F0.0
sF2.3190816184917917
F0.0
sF19.162306430043518
F0.0
sF14.229199722617338
F0.0
sF83.3373527042863
F0.0
sF89.42812633217362
F0.0
sF37.77757479526073
F0.0
sF88.01242372659374
F0.0
sF17.310997811011514
F0.0
sF16.017092572030585
F0.0
sF33.86721970211746
F0.0
sF88.96831093812413
F0.0
sF92.15546004589297
F50.5882358287688
sF77.79401755943756
F0.0
sF72.99873716048683
F0.0
sF59.909421871227615
F0.0
sF82.41331863149519
F1219.8403671580436
sF42.43531991712278
F0.0
sF100.0
F0.0
sF16.820138012293
F0.0
sF80.74520509334164
F0.0
sF91.33972596228277
F0.0
sF31.788825156107553
F0.0
sF28.77926172349993
F0.0
sF88.42672410715662
F0.0
sF89.15279078895148
F0.0
sF17.433108552829875
F0.0
sF79.7389344919446
F23.06104132125284
sF49.63084579964825
F0.0
sF7.287790127341861
F0.0
sF33.90213641990708
F0.0
sF92.3042115004906
F0.0
sF35.135924076521285
F0.0
sF88.95248249290074
F0.0
sF10.021259025900749
F0.0
sF27.06157820155574
F0.0
sF98.88685399530031
F0.0
sF82.90984149303256
F0.0
sF87.9797194806819
F345.2265164074379
sF13.959203496438036
F0.0
sF29.89709241530415
F0.0
sF82.33059531944141
F0.0
sF89.01695864130512
F0.0
sF80.38184985886326
F0.0
sF53.75781367654624
F0.0
sF44.26556718954966
F6340.1651110335515
sF78.21095766131324
F0.0
sF40.2704348161395
F0.0
sF10.387930744894282
F0.0
sF97.07675852038649
F0.0
sF47.09566174857417
F0.0
sF23.205419364515556
F0.0
sF49.68514602545497
F0.0
sF84.45701545988307
F0.0
sF88.94570913820448
F0.0
sF41.450973361117946
F0.0
sF30.031578061326393
F0.0
sF89.50941721611952
F0.0
sF47.763782454709855
F0.0
sF19.00428770740523
F0.0
ssS'6'
p23
(dp24
F19.034776708808156
F0.0
sF35.79394156073233
F0.0
sF24.334140837059493
F0.0
sF24.053056794883272
F0.0
sF19.918514349432392
F5166.931230525249
sF97.33753545918225
F0.0
sF97.13297334462966
F0.0
sF89.65840980650496
F0.0
sF20.048404872917992
F0.0
sF59.49008377167864
F0.0
sF79.47087957659718
F0.0
sF48.250015810474544
F0.0
sF38.21155607667577
F0.0
sF44.15349144215134
F0.0
sF8.405108633046991
F2.2315739872680367
sF48.73078868903875
F0.0
sF58.5433854068355
F0.0
sF88.96086317628564
F0.0
sF90.05597911810094
F0.0
sF2.3190816184917917
F0.0
sF19.162306430043518
F0.0
sF14.229199722617338
F0.0
sF83.3373527042863
F0.0
sF89.42812633217362
F0.0
sF37.77757479526073
F0.0
sF88.01242372659374
F0.0
sF17.310997811011514
F0.0
sF16.017092572030585
F0.0
sF33.86721970211746
F0.0
sF88.96831093812413
F0.0
sF92.15546004589297
F0.0
sF77.79401755943756
F0.0
sF72.99873716048683
F0.0
sF59.909421871227615
F0.0
sF82.41331863149519
F0.0
sF42.43531991712278
F0.0
sF100.0
F0.0
sF16.820138012293
F0.0
sF80.74520509334164
F0.0
sF91.33972596228277
F0.0
sF31.788825156107553
F0.0
sF28.77926172349993
F0.0
sF88.42672410715662
F0.0
sF89.15279078895148
F0.0
sF17.433108552829875
F0.0
sF79.7389344919446
F0.0
sF49.63084579964825
F0.0
sF7.287790127341861
F0.0
sF33.90213641990708
F0.0
sF92.3042115004906
F0.0
sF35.135924076521285
F0.0
sF88.95248249290074
F0.0
sF10.021259025900749
F0.0
sF27.06157820155574
F0.0
sF98.88685399530031
F0.0
sF82.90984149303256
F0.0
sF87.9797194806819
F0.0
sF13.959203496438036
F0.0
sF29.89709241530415
F0.0
sF82.33059531944141
F0.0
sF89.01695864130512
F0.0
sF80.38184985886326
F0.0
sF53.75781367654624
F0.0
sF44.26556718954966
F0.0
sF78.21095766131324
F0.0
sF40.2704348161395
F0.0
sF10.387930744894282
F0.0
sF97.07675852038649
F0.0
sF47.09566174857417
F0.0
sF23.205419364515556
F0.0
sF49.68514602545497
F0.0
sF84.45701545988307
F0.0
sF88.94570913820448
F0.0
sF41.450973361117946
F0.0
sF30.031578061326393
F0.0
sF89.50941721611952
F0.0
sF47.763782454709855
F0.0
sF19.00428770740523
F0.0
ssS'9'
p25
(dp26
F19.034776708808156
F0.0
sF35.79394156073233
F1336.5701347490228
sF24.334140837059493
F1469.4943471500212
sF24.053056794883272
F1472.7546896137067
sF19.918514349432392
F1520.7119631695
sF97.33753545918225
F1.8795265774316487
sF97.13297334462966
F1.8031396938945228
sF89.65840980650496
F0.0
sF20.048404872917992
F1519.2053405022305
sF59.49008377167864
F243.94254551814163
sF79.47087957659718
F2898.362901714284
sF48.250015810474544
F528.5974065810113
sF38.21155607667577
F1604.4231489203726
sF44.15349144215134
F6764.1652285186965
sF8.405108633046991
F2.2315739872680367
sF48.73078868903875
F677.6583364690869
sF58.5433854068355
F1104.2244870074721
sF88.96086317628564
F0.0
sF90.05597911810094
F0.0
sF2.3190816184917917
F0.0
sF19.162306430043518
F0.0
sF14.229199722617338
F0.0
sF83.3373527042863
F0.0
sF89.42812633217362
F0.0
sF37.77757479526073
F1313.561629474803
sF88.01242372659374
F0.0
sF17.310997811011514
F0.0
sF16.017092572030585
F0.0
sF33.86721970211746
F1358.9185151220881
sF88.96831093812413
F0.0
sF92.15546004589297
F25.750180647143452
sF77.79401755943756
F2898.362901714284
sF72.99873716048683
F2898.362901714284
sF59.909421871227615
F2898.362901714284
sF82.41331863149519
F1219.8403671580436
sF42.43531991712278
F3642.6733370808465
sF100.0
F0.0
sF16.820138012293
F0.0
sF80.74520509334164
F2898.362901714284
sF91.33972596228277
F0.0
sF31.788825156107553
F1383.0261732523209
sF28.77926172349993
F1417.9346204929288
sF88.42672410715662
F0.0
sF89.15279078895148
F0.0
sF17.433108552829875
F0.0
sF79.7389344919446
F2898.362901714284
sF49.63084579964825
F2304.7490976082013
sF7.287790127341861
F0.0
sF33.90213641990708
F1358.5135100680102
sF92.3042115004906
F0.0
sF35.135924076521285
F1344.2025934578517
sF88.95248249290074
F0.0
sF10.021259025900749
F2.2315739872680367
sF27.06157820155574
F1437.8583290123058
sF98.88685399530031
F0.0
sF82.90984149303256
F0.0
sF87.9797194806819
F413.3403793309187
sF13.959203496438036
F0.0
sF29.89709241530415
F1404.9687087909215
sF82.33059531944141
F1219.8403671580436
sF89.01695864130512
F0.0
sF80.38184985886326
F2898.362901714284
sF53.75781367654624
F1104.2244870074721
sF44.26556718954966
F6971.186987096225
sF78.21095766131324
F2898.362901714284
sF40.2704348161395
F1424.5713727609577
sF10.387930744894282
F0.0
sF97.07675852038649
F1.7821481469410951
sF47.09566174857417
F564.5102751186072
sF23.205419364515556
F1482.5865829031322
sF49.68514602545497
F1136.2788177285615
sF84.45701545988307
F0.0
sF88.94570913820448
F0.0
sF41.450973361117946
F2361.74871340049
sF30.031578061326393
F1403.4087865018876
sF89.50941721611952
F0.0
sF47.763782454709855
F551.2457181516382
sF19.00428770740523
F0.0
ssS'8'
p27
(dp28
F19.034776708808156
F0.0
sF35.79394156073233
F0.0
sF24.334140837059493
F0.0
sF24.053056794883272
F0.0
sF19.918514349432392
F0.0
sF97.33753545918225
F0.0
sF97.13297334462966
F0.0
sF89.65840980650496
F0.0
sF20.048404872917992
F0.0
sF59.49008377167864
F685.0886365732865
sF79.47087957659718
F1545.9467605640266
sF48.250015810474544
F134.3635552937878
sF38.21155607667577
F0.0
sF44.15349144215134
F6740.604670320668
sF8.405108633046991
F0.0
sF48.73078868903875
F134.3635552937878
sF58.5433854068355
F443.9204155036197
sF88.96086317628564
F0.0
sF90.05597911810094
F0.0
sF2.3190816184917917
F0.0
sF19.162306430043518
F0.0
sF14.229199722617338
F0.0
sF83.3373527042863
F1545.9467605640266
sF89.42812633217362
F371.1122574666729
sF37.77757479526073
F0.0
sF88.01242372659374
F1545.9467605640266
sF17.310997811011514
F0.0
sF16.017092572030585
F0.0
sF33.86721970211746
F0.0
sF88.96831093812413
F0.0
sF92.15546004589297
F0.0
sF77.79401755943756
F1545.9467605640266
sF72.99873716048683
F1556.678414564931
sF59.909421871227615
F3846.544490497853
sF82.41331863149519
F1545.9467605640266
sF42.43531991712278
F0.0
sF100.0
F0.0
sF16.820138012293
F0.0
sF80.74520509334164
F1545.9467605640266
sF91.33972596228277
F0.0
sF31.788825156107553
F0.0
sF28.77926172349993
F0.0
sF88.42672410715662
F1693.7688246828104
sF89.15279078895148
F0.0
sF17.433108552829875
F0.0
sF79.7389344919446
F1545.9467605640266
sF49.63084579964825
F134.3635552937878
sF7.287790127341861
F0.0
sF33.90213641990708
F0.0
sF92.3042115004906
F0.0
sF35.135924076521285
F0.0
sF88.95248249290074
F0.0
sF10.021259025900749
F0.0
sF27.06157820155574
F0.0
sF98.88685399530031
F0.0
sF82.90984149303256
F1545.9467605640266
sF87.9797194806819
F1545.9467605640266
sF13.959203496438036
F0.0
sF29.89709241530415
F0.0
sF82.33059531944141
F1545.9467605640266
sF89.01695864130512
F0.0
sF80.38184985886326
F1545.9467605640266
sF53.75781367654624
F134.3635552937878
sF44.26556718954966
F5.1182951067693505
sF78.21095766131324
F1545.9467605640266
sF40.2704348161395
F0.0
sF10.387930744894282
F0.0
sF97.07675852038649
F0.0
sF47.09566174857417
F284.90282576784085
sF23.205419364515556
F0.0
sF49.68514602545497
F134.3635552937878
sF84.45701545988307
F1545.9467605640266
sF88.94570913820448
F1572.5489104131639
sF41.450973361117946
F0.0
sF30.031578061326393
F0.0
sF89.50941721611952
F0.0
sF47.763782454709855
F134.3635552937878
sF19.00428770740523
F0.0
ss.