(dp0
S'1'
p1
(dp2
F0.0
F0.0
sF1.0
F38.96666666666667
sF2.0
F208.69999999999996
sF3.0
F0.0
sF4.0
F334.6333333333333
sF5.0
F41.96666666666667
sF6.0
F37.0
sF7.0
F188.0666666666666
sF8.0
F472.79999999999995
sF9.0
F0.0
sF10.0
F0.0
ssS'0'
p3
(dp4
F0.0
F0.0
sF1.0
F37.666666666666664
sF2.0
F130.01904761904763
sF3.0
F196.5952380952381
sF4.0
F0.0
sF5.0
F0.0
sF6.0
F37.0
sF7.0
F191.99999999999997
sF8.0
F182.49999999999997
sF9.0
F0.0
sF10.0
F0.0
ssS'3'
p5
(dp6
F0.0
F0.0
sF1.0
F103.93333333333332
sF2.0
F127.10952380952381
sF3.0
F0.0
sF4.0
F269.33333333333337
sF5.0
F17.666666666666664
sF6.0
F252.6
sF7.0
F17.0
sF8.0
F151.29999999999998
sF9.0
F33.666666666666664
sF10.0
F0.0
ssS'2'
p7
(dp8
F0.0
F0.0
sF1.0
F115.69999999999999
sF2.0
F277.6952380952381
sF3.0
F0.0
sF4.0
F361.16666666666663
sF5.0
F36.46666666666667
sF6.0
F163.63333333333333
sF7.0
F60.66666666666667
sF8.0
F122.26666666666667
sF9.0
F0.0
sF10.0
F0.0
ssS'5'
p9
(dp10
F0.0
F0.0
sF1.0
F29.0
sF2.0
F121.80952380952382
sF3.0
F165.97619047619048
sF4.0
F194.16666666666666
sF5.0
F0.0
sF6.0
F0.0
sF7.0
F61.16666666666667
sF8.0
F204.66666666666663
sF9.0
F48.96666666666667
sF10.0
F0.0
ssS'4'
p11
(dp12
F0.0
F0.0
sF1.0
F112.16666666666666
sF2.0
F57.06666666666667
sF3.0
F152.5
sF4.0
F71.83333333333334
sF5.0
F65.73333333333332
sF6.0
F167.7
sF7.0
F133.9
sF8.0
F105.4
sF9.0
F43.766666666666666
sF10.0
F0.0
ssS'7'
p13
(dp14
F0.0
F0.0
sF1.0
F65.9
sF2.0
F90.80952380952381
sF3.0
F138.2761904761905
sF4.0
F193.83333333333334
sF5.0
F34.06666666666666
sF6.0
F173.93333333333334
sF7.0
F79.83333333333334
sF8.0
F121.79999999999998
sF9.0
F76.7
sF10.0
F0.0
ssS'6'
p15
(dp16
F0.0
F0.0
sF1.0
F105.13333333333333
sF2.0
F0.0
sF3.0
F235.63333333333333
sF4.0
F122.79999999999998
sF5.0
F17.666666666666664
sF6.0
F93.46666666666667
sF7.0
F17.0
sF8.0
F276.03333333333336
sF9.0
F20.0
sF10.0
F0.0
ssS'9'
p17
(dp18
F0.0
F0.0
sF1.0
F29.0
sF2.0
F139.68571428571428
sF3.0
F232.14285714285714
sF4.0
F217.7
sF5.0
F39.9
sF6.0
F180.03333333333333
sF7.0
F0.0
sF8.0
F101.73333333333335
sF9.0
F63.7
sF10.0
F0.0
ssS'8'
p19
(dp20
F0.0
F0.0
sF1.0
F108.33333333333333
sF2.0
F106.85238095238095
sF3.0
F137.72857142857143
sF4.0
F89.50000000000001
sF5.0
F0.0
sF6.0
F182.96666666666667
sF7.0
F74.4
sF8.0
F171.33333333333334
sF9.0
F98.16666666666666
sF10.0
F0.0
ss.